(lp1
(lp2
V2016-01-21
p3
a(dp4
S'Serv'
p5
F0.80000000000000004
sS'Disp'
p6
F1.6000000000000001
sS'Bat'
p7
F1.6000000000000001
sS'Perf'
p8
F3.2000000000000002
sS'OverAll'
p9
F8.8000000000000007
sS'Build'
p10
F0.80000000000000004
saa(lp11
V2016-01-20
p12
a(dp13
g5
I0
sg6
F1.6000000000000001
sg7
I0
sg8
F0.80000000000000004
sg9
F4
sg10
F1.6000000000000001
saa(lp14
V2016-01-19
p15
a(dp16
g5
F2
sg6
I0
sg7
F2
sg8
I0
sg9
F2.7999999999999998
sg10
I0
saa(lp17
V2016-01-19
p18
a(dp19
g5
I0
sg6
I0
sg7
F0.80000000000000004
sg8
F4.7999999999999998
sg9
F8.8000000000000007
sg10
F5.5999999999999996
saa(lp20
V2016-01-15
p21
a(dp22
g5
I0
sg6
I0
sg7
I0
sg8
I0
sg9
F1.6000000000000001
sg10
I0
saa(lp23
V2016-01-14
p24
a(dp25
g5
I0
sg6
I0
sg7
I0
sg8
F2.4000000000000004
sg9
F7.2000000000000002
sg10
I0
saa(lp26
V2016-01-13
p27
a(dp28
g5
I0
sg6
I0
sg7
I0
sg8
I0
sg9
I0
sg10
I0
saa(lp29
V2016-01-12
p30
a(dp31
g5
I0
sg6
I0
sg7
I0
sg8
F-1.2
sg9
F-1.2
sg10
I0
saa(lp32
V2016-01-12
p33
a(dp34
g5
I0
sg6
I0
sg7
I0
sg8
I0
sg9
F1.6000000000000001
sg10
I0
saa(lp35
V2016-01-10
p36
a(dp37
g5
I0
sg6
I0
sg7
I0
sg8
F0.80000000000000004
sg9
F0.80000000000000004
sg10
F0.80000000000000004
saa(lp38
V2016-01-09
p39
a(dp40
g5
F1.6000000000000001
sg6
I0
sg7
F1.6000000000000001
sg8
I0
sg9
F3.2000000000000002
sg10
F1.6000000000000001
saa(lp41
V2016-01-08
p42
a(dp43
g5
F1.6000000000000001
sg6
I0
sg7
F1.6000000000000001
sg8
F1.6000000000000001
sg9
F1.6000000000000001
sg10
I0
saa(lp44
V2016-01-08
p45
a(dp46
g5
F2.4000000000000004
sg6
I0
sg7
F2.4000000000000004
sg8
F2.4000000000000004
sg9
F2.4000000000000004
sg10
I0
saa(lp47
V2016-01-08
p48
a(dp49
g5
I0
sg6
I0
sg7
I0
sg8
F0.80000000000000004
sg9
F2.4000000000000004
sg10
I0
saa(lp50
V2016-01-07
p51
a(dp52
g5
I0
sg6
I0
sg7
I0
sg8
I0
sg9
I0
sg10
I0
saa(lp53
V2016-01-06
p54
a(dp55
g5
I0
sg6
I0
sg7
I0
sg8
I0
sg9
F2.4000000000000004
sg10
I0
saa(lp56
V2016-01-06
p57
a(dp58
g5
F4.7999999999999998
sg6
F4.7999999999999998
sg7
F4.7999999999999998
sg8
F4.7999999999999998
sg9
F4.7999999999999998
sg10
I0
saa(lp59
V2016-01-05
p60
a(dp61
g5
I0
sg6
I0
sg7
I0
sg8
F1.6000000000000001
sg9
F1.2000000000000002
sg10
I0
saa(lp62
V2016-01-04
p63
a(dp64
g5
F-0.39999999999999991
sg6
I0
sg7
F1.2000000000000004
sg8
I0
sg9
F0.80000000000000049
sg10
I0
saa(lp65
V2016-01-02
p66
a(dp67
g5
I0
sg6
I0
sg7
I0
sg8
F1.6000000000000001
sg9
F2
sg10
I0
saa(lp68
V2016-01-01
p69
a(dp70
g5
F1.6000000000000001
sg6
I0
sg7
I0
sg8
I0
sg9
F1.6000000000000001
sg10
I0
saa(lp71
V2016-01-01
p72
a(dp73
g5
I0
sg6
I0
sg7
I0
sg8
I0
sg9
F2.4000000000000004
sg10
I0
saa(lp74
V2016-01-01
p75
a(dp76
g5
I0
sg6
I0
sg7
F0.80000000000000004
sg8
F0.80000000000000004
sg9
F0.80000000000000004
sg10
I0
saa(lp77
V2016-01-01
p78
a(dp79
g5
I0
sg6
F1.2000000000000004
sg7
F1.2000000000000004
sg8
F3.6000000000000005
sg9
F4.4000000000000004
sg10
F1.2000000000000004
saa(lp80
V2016-01-01
p81
a(dp82
g5
I0
sg6
I0
sg7
F1.2000000000000004
sg8
I0
sg9
F2.0000000000000004
sg10
I0
saa(lp83
V2015-12-31
p84
a(dp85
g5
I0
sg6
I0
sg7
I0
sg8
F0.80000000000000004
sg9
F2.4000000000000004
sg10
F1.6000000000000001
saa(lp86
V2015-12-30
p87
a(dp88
g5
F7.9999999999999991
sg6
I0
sg7
I0
sg8
F7.1999999999999993
sg9
F7.9999999999999991
sg10
I0
saa(lp89
V2015-12-29
p90
a(dp91
g5
I0
sg6
F1.6000000000000001
sg7
I0
sg8
F0.80000000000000004
sg9
F4
sg10
F1.6000000000000001
saa(lp92
V2015-12-29
p93
a(dp94
g5
I0
sg6
I0
sg7
I0
sg8
I0
sg9
F1.6000000000000001
sg10
I0
saa(lp95
V2015-12-29
p96
a(dp97
g5
I0
sg6
I0
sg7
I0
sg8
I0
sg9
F0.80000000000000004
sg10
I0
saa(lp98
V2015-12-29
p99
a(dp100
g5
I0
sg6
F-1.2
sg7
I0
sg8
F0.80000000000000004
sg9
F0.40000000000000013
sg10
I0
saa(lp101
V2015-12-28
p102
a(dp103
g5
F0.80000000000000004
sg6
I0
sg7
I0
sg8
I0
sg9
F1.6000000000000001
sg10
I0
saa(lp104
V2015-12-26
p105
a(dp106
g5
I0
sg6
I0
sg7
I0
sg8
I0
sg9
I0
sg10
I0
saa(lp107
V2015-12-25
p108
a(dp109
g5
I0
sg6
I0
sg7
I0
sg8
I0
sg9
I0
sg10
I0
saa(lp110
V2015-12-25
p111
a(dp112
g5
F0.40000000000000013
sg6
F0.80000000000000004
sg7
I0
sg8
F0.40000000000000013
sg9
F5.1999999999999993
sg10
I0
saa(lp113
V2015-12-25
p114
a(dp115
g5
I0
sg6
I0
sg7
I0
sg8
F0.80000000000000004
sg9
F1.6000000000000001
sg10
F0.80000000000000004
saa(lp116
V2015-12-24
p117
a(dp118
g5
F0.40000000000000013
sg6
I0
sg7
I0
sg8
F-0.39999999999999991
sg9
F0.40000000000000013
sg10
I0
saa(lp119
V2015-12-23
p120
a(dp121
g5
I0
sg6
I0
sg7
I0
sg8
I0
sg9
F-0.39999999999999991
sg10
I0
saa(lp122
V2015-12-19
p123
a(dp124
g5
I0
sg6
F4.7999999999999998
sg7
I0
sg8
F4.7999999999999998
sg9
F4.7999999999999998
sg10
F4.7999999999999998
saa(lp125
V2015-12-18
p126
a(dp127
g5
I0
sg6
I0
sg7
I0
sg8
I0
sg9
F0.40000000000000013
sg10
I0
saa(lp128
V2015-12-17
p129
a(dp130
g5
I0
sg6
I0
sg7
I0
sg8
F-1.2
sg9
F-1.2
sg10
I0
saa(lp131
V2015-12-17
p132
a(dp133
g5
I0
sg6
I0
sg7
I0
sg8
I0
sg9
F3.2000000000000002
sg10
I0
saa(lp134
V2015-12-17
p135
a(dp136
g5
I0
sg6
I0
sg7
I0
sg8
I0
sg9
I0
sg10
I0
saa(lp137
V2015-12-16
p138
a(dp139
g5
F0.80000000000000004
sg6
I0
sg7
I0
sg8
I0
sg9
F2.4000000000000004
sg10
I0
saa(lp140
V2015-12-16
p141
a(dp142
g5
F2.7999999999999998
sg6
F2.7999999999999998
sg7
I0
sg8
F2.7999999999999998
sg9
F2.7999999999999998
sg10
I0
saa(lp143
V2015-12-16
p144
a(dp145
g5
I0
sg6
I0
sg7
I0
sg8
F1.6000000000000001
sg9
F1.6000000000000001
sg10
I0
saa(lp146
V2015-12-15
p147
a(dp148
g5
I0
sg6
I0
sg7
I0
sg8
I0
sg9
F0.80000000000000004
sg10
I0
saa(lp149
V2015-12-14
p150
a(dp151
g5
I0
sg6
I0
sg7
I0
sg8
I0
sg9
F3.2000000000000002
sg10
I0
saa(lp152
V2015-12-14
p153
a(dp154
g5
F0.80000000000000004
sg6
I0
sg7
F0.80000000000000004
sg8
I0
sg9
F-1.5999999999999999
sg10
I0
saa(lp155
V2015-12-14
p156
a(dp157
g5
F-1.2
sg6
F0.80000000000000004
sg7
F-0.79999999999999982
sg8
I0
sg9
F2.7999999999999998
sg10
I0
saa(lp158
V2015-12-13
p159
a(dp160
g5
I0
sg6
I0
sg7
I0
sg8
I0
sg9
F0.80000000000000004
sg10
I0
saa(lp161
V2015-12-11
p162
a(dp163
g5
F0.80000000000000004
sg6
I0
sg7
I0
sg8
F0.80000000000000004
sg9
F1.6000000000000001
sg10
I0
saa(lp164
V2015-12-10
p165
a(dp166
g5
I0
sg6
F0.80000000000000004
sg7
F-1.2
sg8
I0
sg9
F-0.39999999999999991
sg10
I0
saa(lp167
V2015-12-10
p168
a(dp169
g5
I0
sg6
I0
sg7
I0
sg8
F1.6000000000000001
sg9
F6.3999999999999995
sg10
F0.80000000000000004
saa(lp170
V2015-12-10
p171
a(dp172
g5
I0
sg6
I0
sg7
I0
sg8
I0
sg9
F0.80000000000000004
sg10
I0
saa(lp173
V2015-12-09
p174
a(dp175
g5
F0.80000000000000004
sg6
I0
sg7
I0
sg8
I0
sg9
F2.8000000000000003
sg10
I0
saa(lp176
V2015-12-08
p177
a(dp178
g5
F2.4000000000000004
sg6
F2.4000000000000004
sg7
F2.4000000000000004
sg8
I0
sg9
F2.4000000000000004
sg10
I0
saa(lp179
V2015-12-08
p180
a(dp181
g5
I0
sg6
F1.6000000000000001
sg7
I0
sg8
I0
sg9
F2.4000000000000004
sg10
I0
saa(lp182
V2015-12-07
p183
a(dp184
g5
I0
sg6
I0
sg7
I0
sg8
I0
sg9
F1.6000000000000001
sg10
I0
saa(lp185
V2015-12-07
p186
a(dp187
g5
I0
sg6
I0
sg7
I0
sg8
I0
sg9
I0
sg10
I0
saa(lp188
V2015-12-06
p189
a(dp190
g5
F0.80000000000000004
sg6
I0
sg7
I0
sg8
F0.80000000000000004
sg9
F0.80000000000000004
sg10
I0
saa(lp191
V2015-12-04
p192
a(dp193
g5
I0
sg6
F4
sg7
F4
sg8
I0
sg9
F4
sg10
F4
saa(lp194
V2015-12-04
p195
a(dp196
g5
I0
sg6
I0
sg7
F2.0000000000000004
sg8
F2.0000000000000004
sg9
F2.0000000000000004
sg10
I0
saa(lp197
V2015-12-01
p198
a(dp199
g5
F0.80000000000000004
sg6
F0.80000000000000004
sg7
F0.80000000000000004
sg8
F4
sg9
F7.5999999999999996
sg10
I0
saa(lp200
V2015-11-30
p201
a(dp202
g5
F3.2000000000000002
sg6
I0
sg7
I0
sg8
F3.2000000000000006
sg9
F3.6000000000000005
sg10
I0
saa(lp203
V2015-11-29
p204
a(dp205
g5
I0
sg6
F0.80000000000000004
sg7
F0.80000000000000004
sg8
I0
sg9
F4.8000000000000007
sg10
I0
saa(lp206
V2015-11-27
p207
a(dp208
g5
I0
sg6
I0
sg7
I0
sg8
I0
sg9
F0.80000000000000004
sg10
I0
saa(lp209
V2015-11-26
p210
a(dp211
g5
I0
sg6
I0
sg7
I0
sg8
F2.4000000000000004
sg9
F2
sg10
F2.4000000000000004
saa(lp212
V2015-11-25
p213
a(dp214
g5
I0
sg6
F0.80000000000000004
sg7
F0.80000000000000004
sg8
F1.6000000000000001
sg9
F13.200000000000003
sg10
I0
saa(lp215
V2015-11-25
p216
a(dp217
g5
I0
sg6
I0
sg7
I0
sg8
I0
sg9
F2.4000000000000004
sg10
I0
saa(lp218
V2015-11-25
p219
a(dp220
g5
I0
sg6
I0
sg7
I0
sg8
I0
sg9
F0.40000000000000013
sg10
F-1.2
saa(lp221
V2015-11-23
p222
a(dp223
g5
I0
sg6
I0
sg7
I0
sg8
F1.6000000000000001
sg9
F1.6000000000000001
sg10
I0
saa(lp224
V2015-11-23
p225
a(dp226
g5
I0
sg6
I0
sg7
I0
sg8
F0.80000000000000004
sg9
F0.80000000000000004
sg10
I0
saa(lp227
V2015-11-23
p228
a(dp229
g5
I0
sg6
I0
sg7
I0
sg8
I0
sg9
F0.80000000000000004
sg10
I0
saa(lp230
V2015-11-22
p231
a(dp232
g5
F2.0000000000000004
sg6
I0
sg7
I0
sg8
I0
sg9
F2.0000000000000004
sg10
I0
saa(lp233
V2015-11-22
p234
a(dp235
g5
I0
sg6
I0
sg7
I0
sg8
I0
sg9
F0.80000000000000004
sg10
I0
saa(lp236
V2015-11-21
p237
a(dp238
g5
F1.6000000000000001
sg6
I0
sg7
I0
sg8
F-1.2
sg9
F0.40000000000000013
sg10
I0
saa(lp239
V2015-11-21
p240
a(dp241
g5
F0.80000000000000004
sg6
F1.6000000000000001
sg7
I0
sg8
I0
sg9
F4.7999999999999998
sg10
I0
saa(lp242
V2015-11-19
p243
a(dp244
g5
I0
sg6
I0
sg7
I0
sg8
I0
sg9
F-0.39999999999999991
sg10
I0
saa(lp245
V2015-11-19
p246
a(dp247
g5
I0
sg6
I0
sg7
I0
sg8
I0
sg9
F1.6000000000000001
sg10
F0.80000000000000004
saa(lp248
V2015-11-19
p249
a(dp250
g5
F3.2000000000000002
sg6
I0
sg7
I0
sg8
F2.4000000000000004
sg9
F1.5999999999999999
sg10
I0
saa(lp251
V2015-11-18
p252
a(dp253
g5
I0
sg6
I0
sg7
I0
sg8
F1.6000000000000005
sg9
F1.6000000000000005
sg10
F1.6000000000000005
saa(lp254
V2015-11-18
p255
a(dp256
g5
F4
sg6
F1.6000000000000001
sg7
I0
sg8
F3.2000000000000002
sg9
F7.2000000000000002
sg10
F0.80000000000000004
saa(lp257
V2015-11-18
p258
a(dp259
g5
I0
sg6
I0
sg7
I0
sg8
I0
sg9
F0.80000000000000004
sg10
I0
saa(lp260
V2015-11-18
p261
a(dp262
g5
F0.80000000000000004
sg6
I0
sg7
F1.6000000000000001
sg8
F1.6000000000000001
sg9
F4.8000000000000007
sg10
F2.4000000000000004
saa(lp263
V2015-11-18
p264
a(dp265
g5
I0
sg6
I0
sg7
I0
sg8
I0
sg9
I0
sg10
I0
saa(lp266
V2015-11-17
p267
a(dp268
g5
I0
sg6
I0
sg7
F2.4000000000000004
sg8
F0.80000000000000004
sg9
F3.2000000000000002
sg10
I0
saa(lp269
V2015-11-17
p270
a(dp271
g5
I0
sg6
I0
sg7
I0
sg8
F1.6000000000000001
sg9
F1.6000000000000001
sg10
I0
saa(lp272
V2015-11-15
p273
a(dp274
g5
I0
sg6
I0
sg7
I0
sg8
I0
sg9
F1.6000000000000001
sg10
I0
saa(lp275
V2015-11-15
p276
a(dp277
g5
I0
sg6
I0
sg7
I0
sg8
I0
sg9
I0
sg10
I0
saa(lp278
V2015-11-14
p279
a(dp280
g5
I0
sg6
I0
sg7
I0
sg8
I0
sg9
F-1.2
sg10
I0
saa(lp281
V2015-11-14
p282
a(dp283
g5
F1.6000000000000001
sg6
I0
sg7
I0
sg8
F2.4000000000000004
sg9
F4
sg10
I0
saa(lp284
V2015-11-12
p285
a(dp286
g5
F-0.39999999999999991
sg6
I0
sg7
I0
sg8
I0
sg9
F2.0000000000000004
sg10
I0
saa(lp287
V2015-11-12
p288
a(dp289
g5
I0
sg6
I0
sg7
I0
sg8
I0
sg9
F0.80000000000000004
sg10
I0
saa(lp290
V2015-11-10
p291
a(dp292
g5
I0
sg6
I0
sg7
I0
sg8
I0
sg9
F0.80000000000000004
sg10
I0
saa(lp293
V2015-11-08
p294
a(dp295
g5
I0
sg6
F1.6000000000000001
sg7
I0
sg8
I0
sg9
F4.7999999999999998
sg10
I0
saa(lp296
V2015-11-05
p297
a(dp298
g5
I0
sg6
F-1.2
sg7
I0
sg8
I0
sg9
F-1.5999999999999999
sg10
I0
saa(lp299
V2015-11-05
p300
a(dp301
g5
I0
sg6
I0
sg7
I0
sg8
F1.6000000000000001
sg9
F2.4000000000000004
sg10
I0
saa(lp302
V2015-11-05
p303
a(dp304
g5
I0
sg6
F0.80000000000000004
sg7
I0
sg8
I0
sg9
F0.80000000000000004
sg10
F0.80000000000000004
saa(lp305
V2015-11-03
p306
a(dp307
g5
I0
sg6
I0
sg7
I0
sg8
I0
sg9
I0
sg10
I0
saa(lp308
V2015-11-03
p309
a(dp310
g5
F0.80000000000000004
sg6
I0
sg7
I0
sg8
I0
sg9
F0.80000000000000004
sg10
I0
saa(lp311
V2015-11-03
p312
a(dp313
g5
I0
sg6
I0
sg7
I0
sg8
F2.4000000000000004
sg9
F2.4000000000000004
sg10
I0
saa(lp314
V2015-11-03
p315
a(dp316
g5
I0
sg6
I0
sg7
I0
sg8
I0
sg9
F0.80000000000000004
sg10
I0
saa(lp317
V2015-11-02
p318
a(dp319
g5
F2.4000000000000004
sg6
I0
sg7
F2.4000000000000004
sg8
I0
sg9
F2.4000000000000004
sg10
I0
saa(lp320
V2015-11-02
p321
a(dp322
g5
F-0.39999999999999991
sg6
I0
sg7
I0
sg8
F0.80000000000000004
sg9
F2.2204460492503131e-16
sg10
F-0.39999999999999991
saa(lp323
V2015-11-01
p324
a(dp325
g5
I0
sg6
I0
sg7
I0
sg8
I0
sg9
I0
sg10
I0
saa(lp326
V2015-11-01
p327
a(dp328
g5
F0.80000000000000004
sg6
I0
sg7
F3.2000000000000002
sg8
F3.2000000000000002
sg9
F4.7999999999999998
sg10
I0
saa(lp329
V2015-11-01
p330
a(dp331
g5
I0
sg6
I0
sg7
I0
sg8
I0
sg9
F4.7999999999999998
sg10
I0
saa(lp332
V2015-10-30
p333
a(dp334
g5
I0
sg6
I0
sg7
I0
sg8
I0
sg9
F-1.2
sg10
I0
saa(lp335
V2015-10-30
p336
a(dp337
g5
I0
sg6
I0
sg7
I0
sg8
I0
sg9
F2.4000000000000004
sg10
I0
saa(lp338
V2015-10-30
p339
a(dp340
g5
I0
sg6
I0
sg7
I0
sg8
I0
sg9
F-0.39999999999999991
sg10
F0.80000000000000004
saa(lp341
V2015-10-30
p342
a(dp343
g5
F0.80000000000000004
sg6
I0
sg7
I0
sg8
I0
sg9
F2
sg10
I0
saa(lp344
V2015-10-30
p345
a(dp346
g5
F4
sg6
I0
sg7
F4
sg8
F4
sg9
F4
sg10
I0
saa(lp347
V2015-10-30
p348
a(dp349
g5
F0.80000000000000004
sg6
F2.4000000000000004
sg7
I0
sg8
F3.2000000000000002
sg9
F3.2000000000000002
sg10
F2.4000000000000004
saa(lp350
V2015-10-30
p351
a(dp352
g5
I0
sg6
I0
sg7
I0
sg8
I0
sg9
F1.6000000000000001
sg10
I0
saa(lp353
V2015-10-29
p354
a(dp355
g5
I0
sg6
I0
sg7
I0
sg8
I0
sg9
F0.40000000000000013
sg10
I0
saa(lp356
V2015-10-28
p357
a(dp358
g5
F2
sg6
F2
sg7
I0
sg8
I0
sg9
F2
sg10
I0
saa(lp359
V2015-10-28
p360
a(dp361
g5
I0
sg6
I0
sg7
I0
sg8
I0
sg9
F2
sg10
F1.6000000000000001
saa(lp362
V2015-10-28
p363
a(dp364
g5
F1.6000000000000001
sg6
I0
sg7
I0
sg8
I0
sg9
F3.2000000000000002
sg10
I0
saa(lp365
V2015-10-28
p366
a(dp367
g5
I0
sg6
I0
sg7
F2.4000000000000004
sg8
F2.4000000000000004
sg9
F4.8000000000000007
sg10
I0
saa(lp368
V2015-10-28
p369
a(dp370
g5
I0
sg6
I0
sg7
I0
sg8
F1.6000000000000001
sg9
F1.6000000000000001
sg10
I0
saa(lp371
V2015-10-27
p372
a(dp373
g5
F0.80000000000000004
sg6
I0
sg7
I0
sg8
F0.80000000000000004
sg9
F1.6000000000000001
sg10
I0
saa(lp374
V2015-10-27
p375
a(dp376
g5
F0.80000000000000004
sg6
I0
sg7
I0
sg8
F0.80000000000000004
sg9
F1.6000000000000001
sg10
I0
saa(lp377
V2015-10-26
p378
a(dp379
g5
I0
sg6
F1.6000000000000001
sg7
F1.6000000000000001
sg8
F1.6000000000000001
sg9
F1.6000000000000001
sg10
I0
saa(lp380
V2015-10-26
p381
a(dp382
g5
I0
sg6
I0
sg7
F0.80000000000000004
sg8
F0.80000000000000004
sg9
F-0.79999999999999982
sg10
I0
saa(lp383
V2015-10-26
p384
a(dp385
g5
I0
sg6
I0
sg7
I0
sg8
I0
sg9
F0.80000000000000004
sg10
I0
saa(lp386
V2015-10-25
p387
a(dp388
g5
F1.6000000000000001
sg6
I0
sg7
I0
sg8
F1.6000000000000001
sg9
F1.6000000000000001
sg10
I0
saa(lp389
V2015-10-24
p390
a(dp391
g5
F-1.2
sg6
I0
sg7
I0
sg8
F0.80000000000000004
sg9
F-0.39999999999999969
sg10
I0
saa(lp392
V2015-10-24
p393
a(dp394
g5
F0.80000000000000004
sg6
F0.80000000000000004
sg7
I0
sg8
F0.80000000000000004
sg9
F4
sg10
I0
saa(lp395
V2015-10-24
p396
a(dp397
g5
F0.40000000000000013
sg6
F0.80000000000000004
sg7
I0
sg8
F0.40000000000000013
sg9
F5.1999999999999993
sg10
I0
saa(lp398
V2015-10-23
p399
a(dp400
g5
F0.80000000000000004
sg6
I0
sg7
F1.6000000000000001
sg8
F1.6000000000000001
sg9
F4
sg10
F1.6000000000000001
saa(lp401
V2015-10-23
p402
a(dp403
g5
I0
sg6
I0
sg7
I0
sg8
I0
sg9
F0.80000000000000004
sg10
I0
saa(lp404
V2015-10-23
p405
a(dp406
g5
I0
sg6
I0
sg7
I0
sg8
I0
sg9
F1.2000000000000004
sg10
I0
saa(lp407
V2015-10-22
p408
a(dp409
g5
I0
sg6
I0
sg7
I0
sg8
I0
sg9
F2.8000000000000003
sg10
I0
saa(lp410
V2015-10-22
p411
a(dp412
g5
I0
sg6
F1.6000000000000001
sg7
I0
sg8
I0
sg9
F4
sg10
I0
saa(lp413
V2015-10-22
p414
a(dp415
g5
F1.6000000000000001
sg6
F1.6000000000000001
sg7
F0.80000000000000004
sg8
F2.4000000000000004
sg9
F6.8000000000000007
sg10
F0.80000000000000004
saa(lp416
V2015-10-21
p417
a(dp418
g5
F1.6000000000000001
sg6
I0
sg7
I0
sg8
I0
sg9
F2.4000000000000004
sg10
I0
saa(lp419
V2015-10-21
p420
a(dp421
g5
I0
sg6
I0
sg7
I0
sg8
I0
sg9
F1.6000000000000001
sg10
F0.80000000000000004
saa(lp422
V2015-10-21
p423
a(dp424
g5
I0
sg6
I0
sg7
I0
sg8
I0
sg9
F-1.9999999999999998
sg10
F-1.2
saa(lp425
V2015-10-21
p426
a(dp427
g5
I0
sg6
F3.2000000000000002
sg7
F3.2000000000000002
sg8
F3.2000000000000002
sg9
F3.2000000000000002
sg10
I0
saa(lp428
V2015-10-21
p429
a(dp430
g5
I0
sg6
I0
sg7
I0
sg8
I0
sg9
I0
sg10
I0
saa(lp431
V2015-10-20
p432
a(dp433
g5
F0.80000000000000004
sg6
F0.80000000000000004
sg7
F0.80000000000000004
sg8
F0.80000000000000004
sg9
F1.6000000000000003
sg10
F0.80000000000000004
saa(lp434
V2015-10-20
p435
a(dp436
g5
I0
sg6
I0
sg7
F0.80000000000000004
sg8
I0
sg9
F2
sg10
F-1.2
saa(lp437
V2015-10-20
p438
a(dp439
g5
F0.80000000000000004
sg6
I0
sg7
F1.6000000000000001
sg8
F0.80000000000000004
sg9
F2.7999999999999998
sg10
F1.6000000000000001
saa(lp440
V2015-10-19
p441
a(dp442
g5
F-1.2
sg6
I0
sg7
I0
sg8
I0
sg9
F-1.2
sg10
I0
saa(lp443
V2015-10-19
p444
a(dp445
g5
I0
sg6
I0
sg7
I0
sg8
I0
sg9
F0.80000000000000004
sg10
I0
saa(lp446
V2015-10-17
p447
a(dp448
g5
I0
sg6
I0
sg7
I0
sg8
I0
sg9
F0.80000000000000004
sg10
I0
saa(lp449
V2015-10-17
p450
a(dp451
g5
F2.4000000000000004
sg6
I0
sg7
F2.4000000000000004
sg8
F2.4000000000000004
sg9
F2.4000000000000004
sg10
F2.4000000000000004
saa(lp452
V2015-10-13
p453
a(dp454
g5
F1.6000000000000001
sg6
F1.6000000000000001
sg7
I0
sg8
F1.2000000000000002
sg9
F2.8000000000000003
sg10
F1.6000000000000001
saa(lp455
V2015-10-11
p456
a(dp457
g5
I0
sg6
I0
sg7
I0
sg8
I0
sg9
F-0.39999999999999991
sg10
I0
saa(lp458
V2015-10-09
p459
a(dp460
g5
I0
sg6
F0.80000000000000004
sg7
I0
sg8
I0
sg9
F0.80000000000000004
sg10
F0.80000000000000004
saa(lp461
V2015-10-08
p462
a(dp463
g5
I0
sg6
I0
sg7
I0
sg8
F1.2000000000000002
sg9
F2.7999999999999998
sg10
I0
saa(lp464
V2015-10-08
p465
a(dp466
g5
I0
sg6
I0
sg7
I0
sg8
F0.80000000000000004
sg9
F3.2000000000000002
sg10
F0.80000000000000004
saa(lp467
V2015-10-06
p468
a(dp469
g5
I0
sg6
I0
sg7
I0
sg8
I0
sg9
F3.2000000000000002
sg10
I0
saa(lp470
V2015-10-05
p471
a(dp472
g5
I0
sg6
I0
sg7
I0
sg8
F0.80000000000000004
sg9
F5.5999999999999996
sg10
I0
saa(lp473
V2015-10-05
p474
a(dp475
g5
I0
sg6
I0
sg7
I0
sg8
I0
sg9
F2.0000000000000004
sg10
I0
saa(lp476
V2015-10-04
p477
a(dp478
g5
F0.80000000000000004
sg6
I0
sg7
I0
sg8
I0
sg9
F0.80000000000000004
sg10
I0
saa(lp479
V2015-10-04
p480
a(dp481
g5
F0.80000000000000004
sg6
F3.2000000000000002
sg7
I0
sg8
F4.8000000000000007
sg9
F14.800000000000004
sg10
I0
saa(lp482
V2015-10-04
p483
a(dp484
g5
I0
sg6
I0
sg7
I0
sg8
I0
sg9
F4
sg10
I0
saa(lp485
V2015-10-04
p486
a(dp487
g5
I0
sg6
I0
sg7
I0
sg8
F0.40000000000000013
sg9
F0.40000000000000013
sg10
F0.40000000000000013
saa(lp488
V2015-10-03
p489
a(dp490
g5
F2.2204460492503131e-16
sg6
F0.40000000000000013
sg7
F0.40000000000000013
sg8
F2
sg9
F2.4000000000000004
sg10
I0
saa(lp491
V2015-10-03
p492
a(dp493
g5
I0
sg6
I0
sg7
I0
sg8
F1.6000000000000001
sg9
F1.6000000000000001
sg10
I0
saa(lp494
V2015-10-03
p495
a(dp496
g5
F0.80000000000000004
sg6
F0.80000000000000004
sg7
I0
sg8
F1.6000000000000001
sg9
F3.5999999999999996
sg10
F1.6000000000000001
saa(lp497
V2015-10-02
p498
a(dp499
g5
I0
sg6
I0
sg7
I0
sg8
F1.6000000000000001
sg9
F1.6000000000000001
sg10
F1.6000000000000001
saa(lp500
V2015-10-01
p501
a(dp502
g5
I0
sg6
I0
sg7
F2.4000000000000004
sg8
I0
sg9
F2.4000000000000004
sg10
I0
saa(lp503
V2015-10-01
p504
a(dp505
g5
I0
sg6
F0.80000000000000004
sg7
I0
sg8
I0
sg9
F1.6000000000000001
sg10
I0
saa(lp506
V2015-09-30
p507
a(dp508
g5
F0.80000000000000004
sg6
F0.80000000000000004
sg7
F0.80000000000000004
sg8
F0.80000000000000004
sg9
F3.2000000000000002
sg10
F0.80000000000000004
saa(lp509
V2015-09-30
p510
a(dp511
g5
I0
sg6
I0
sg7
I0
sg8
F0.80000000000000004
sg9
F0.40000000000000013
sg10
I0
saa(lp512
V2015-09-29
p513
a(dp514
g5
I0
sg6
I0
sg7
I0
sg8
I0
sg9
F0.80000000000000004
sg10
I0
saa(lp515
V2015-09-29
p516
a(dp517
g5
F0.80000000000000004
sg6
I0
sg7
I0
sg8
I0
sg9
F0.80000000000000004
sg10
I0
saa(lp518
V2015-09-29
p519
a(dp520
g5
I0
sg6
I0
sg7
I0
sg8
F2.8000000000000003
sg9
F6.4000000000000004
sg10
F3.2000000000000002
saa(lp521
V2015-09-29
p522
a(dp523
g5
I0
sg6
I0
sg7
I0
sg8
F-1.2
sg9
F-1.2
sg10
I0
saa(lp524
V2015-09-29
p525
a(dp526
g5
I0
sg6
I0
sg7
I0
sg8
I0
sg9
F0.80000000000000004
sg10
I0
saa(lp527
V2015-09-29
p528
a(dp529
g5
I0
sg6
I0
sg7
I0
sg8
F1.6000000000000001
sg9
F2.4000000000000004
sg10
I0
saa(lp530
V2015-09-29
p531
a(dp532
g5
I0
sg6
I0
sg7
F0.80000000000000004
sg8
I0
sg9
F2.0000000000000004
sg10
I0
saa(lp533
V2015-09-29
p534
a(dp535
g5
I0
sg6
I0
sg7
I0
sg8
F0.80000000000000004
sg9
F0.80000000000000004
sg10
F0.80000000000000004
saa(lp536
V2015-09-29
p537
a(dp538
g5
I0
sg6
I0
sg7
I0
sg8
F-1.2
sg9
F-0.39999999999999991
sg10
I0
saa(lp539
V2015-09-29
p540
a(dp541
g5
I0
sg6
I0
sg7
I0
sg8
F-0.79999999999999982
sg9
F-0.79999999999999982
sg10
F-0.79999999999999982
saa(lp542
V2015-09-29
p543
a(dp544
g5
F1.6000000000000001
sg6
I0
sg7
I0
sg8
F1.6000000000000001
sg9
F4
sg10
F2.4000000000000004
saa(lp545
V2015-09-29
p546
a(dp547
g5
F0.40000000000000013
sg6
F0.80000000000000004
sg7
I0
sg8
F0.80000000000000004
sg9
F1.2000000000000002
sg10
I0
saa(lp548
V2015-09-28
p549
a(dp550
g5
I0
sg6
I0
sg7
I0
sg8
I0
sg9
F0.80000000000000004
sg10
I0
saa(lp551
V2015-09-28
p552
a(dp553
g5
F1.6000000000000001
sg6
I0
sg7
I0
sg8
F1.6000000000000001
sg9
F1.6000000000000001
sg10
I0
saa(lp554
V2015-09-28
p555
a(dp556
g5
F1.6000000000000001
sg6
I0
sg7
F0.80000000000000004
sg8
I0
sg9
F3.2000000000000002
sg10
I0
saa(lp557
V2015-09-28
p558
a(dp559
g5
F0.40000000000000013
sg6
I0
sg7
I0
sg8
F0.40000000000000013
sg9
F3.2000000000000002
sg10
F0.80000000000000004
saa(lp560
V2015-09-28
p561
a(dp562
g5
F3.2000000000000002
sg6
I0
sg7
F3.2000000000000002
sg8
I0
sg9
F3.2000000000000002
sg10
I0
saa(lp563
V2015-09-26
p564
a(dp565
g5
I0
sg6
I0
sg7
I0
sg8
I0
sg9
F0.80000000000000004
sg10
I0
saa(lp566
V2015-09-24
p567
a(dp568
g5
I0
sg6
I0
sg7
I0
sg8
I0
sg9
F0.80000000000000004
sg10
I0
saa(lp569
V2015-09-20
p570
a(dp571
g5
I0
sg6
I0
sg7
I0
sg8
I0
sg9
I0
sg10
I0
saa(lp572
V2015-09-20
p573
a(dp574
g5
I0
sg6
I0
sg7
I0
sg8
I0
sg9
F-0.39999999999999991
sg10
I0
saa(lp575
V2015-09-19
p576
a(dp577
g5
I0
sg6
I0
sg7
I0
sg8
F1.6000000000000001
sg9
F1.6000000000000001
sg10
I0
saa(lp578
V2015-09-15
p579
a(dp580
g5
I0
sg6
I0
sg7
I0
sg8
I0
sg9
F1.6000000000000001
sg10
I0
saa(lp581
V2015-09-11
p582
a(dp583
g5
I0
sg6
I0
sg7
I0
sg8
I0
sg9
F2.4000000000000004
sg10
F2.4000000000000004
saa(lp584
V2015-09-10
p585
a(dp586
g5
I0
sg6
I0
sg7
I0
sg8
F-1.2
sg9
F0.80000000000000004
sg10
F-1.2
saa(lp587
V2015-09-05
p588
a(dp589
g5
I0
sg6
I0
sg7
I0
sg8
I0
sg9
F2.4000000000000004
sg10
I0
saa(lp590
V2015-09-01
p591
a(dp592
g5
I0
sg6
I0
sg7
I0
sg8
I0
sg9
F2.4000000000000004
sg10
I0
saa.