(lp1
(lp2
V2016-01-17
p3
a(dp4
S'Serv'
p5
I0
sS'Bat'
p6
F4.3999999999999995
sS'Perf'
p7
F4.3999999999999995
sS'OverAll'
p8
F4.3999999999999995
sS'Cam'
p9
F4.3999999999999995
sS'Look'
p10
I0
saa(lp11
V2016-01-08
p12
a(dp13
g5
I0
sg6
I0
sg7
I0
sg8
F-0.39999999999999991
sg9
I0
sg10
I0
saa(lp14
V2016-01-08
p15
a(dp16
g5
I0
sg6
I0
sg7
I0
sg8
I0
sg9
I0
sg10
I0
saa(lp17
V2016-01-08
p18
a(dp19
g5
I0
sg6
I0
sg7
I0
sg8
F2.4000000000000004
sg9
I0
sg10
I0
saa(lp20
V2016-01-08
p21
a(dp22
g5
I0
sg6
I0
sg7
I0
sg8
F3.2000000000000002
sg9
I0
sg10
I0
saa(lp23
V2015-12-31
p24
a(dp25
g5
I0
sg6
I0
sg7
I0
sg8
F1.6000000000000001
sg9
I0
sg10
I0
saa(lp26
V2015-12-29
p27
a(dp28
g5
I0
sg6
I0
sg7
I0
sg8
F1.6000000000000001
sg9
I0
sg10
I0
saa(lp29
V2015-12-29
p30
a(dp31
g5
I0
sg6
F0.80000000000000004
sg7
F0.80000000000000004
sg8
F0.80000000000000004
sg9
I0
sg10
I0
saa(lp32
V2015-12-28
p33
a(dp34
g5
I0
sg6
F-1.2
sg7
I0
sg8
F0.80000000000000049
sg9
F0.80000000000000004
sg10
I0
saa(lp35
V2015-12-24
p36
a(dp37
g5
I0
sg6
F0.80000000000000004
sg7
I0
sg8
F3.2000000000000002
sg9
I0
sg10
I0
saa(lp38
V2016-01-17
p39
a(dp40
g5
I0
sg6
F4.3999999999999995
sg7
F4.3999999999999995
sg8
F4.3999999999999995
sg9
F4.3999999999999995
sg10
I0
saa(lp41
V2016-01-08
p42
a(dp43
g5
I0
sg6
I0
sg7
I0
sg8
F-0.39999999999999991
sg9
I0
sg10
I0
saa(lp44
V2016-01-08
p45
a(dp46
g5
I0
sg6
I0
sg7
I0
sg8
I0
sg9
I0
sg10
I0
saa(lp47
V2015-12-23
p48
a(dp49
g5
I0
sg6
F0.80000000000000004
sg7
I0
sg8
F0.80000000000000004
sg9
I0
sg10
I0
saa(lp50
V2015-12-20
p51
a(dp52
g5
I0
sg6
I0
sg7
I0
sg8
I0
sg9
I0
sg10
I0
saa(lp53
V2015-12-18
p54
a(dp55
g5
I0
sg6
I0
sg7
I0
sg8
F2.8000000000000007
sg9
I0
sg10
I0
saa(lp56
V2015-12-08
p57
a(dp58
g5
I0
sg6
I0
sg7
I0
sg8
F1.6000000000000001
sg9
F0.80000000000000004
sg10
I0
saa(lp59
V2015-12-05
p60
a(dp61
g5
I0
sg6
F-0.39999999999999991
sg7
I0
sg8
F2.0000000000000004
sg9
F0.80000000000000004
sg10
I0
saa(lp62
V2015-12-05
p63
a(dp64
g5
I0
sg6
I0
sg7
I0
sg8
F3.2000000000000002
sg9
I0
sg10
I0
saa(lp65
V2015-11-23
p66
a(dp67
g5
I0
sg6
F1.6000000000000001
sg7
I0
sg8
F1.6000000000000001
sg9
I0
sg10
I0
saa(lp68
V2015-11-22
p69
a(dp70
g5
I0
sg6
F-2.3999999999999999
sg7
I0
sg8
F-2.3999999999999999
sg9
I0
sg10
I0
saa(lp71
V2015-11-22
p72
a(dp73
g5
I0
sg6
F0.80000000000000004
sg7
F0.80000000000000004
sg8
F-0.39999999999999991
sg9
I0
sg10
I0
saa(lp74
V2015-11-04
p75
a(dp76
g5
I0
sg6
I0
sg7
I0
sg8
F-0.39999999999999991
sg9
I0
sg10
I0
saa(lp77
V2015-11-04
p78
a(dp79
g5
I0
sg6
F5.5999999999999996
sg7
I0
sg8
F4
sg9
F5.5999999999999996
sg10
I0
saa(lp80
V2015-11-03
p81
a(dp82
g5
I0
sg6
I0
sg7
I0
sg8
I0
sg9
I0
sg10
I0
saa(lp83
V2015-10-16
p84
a(dp85
g5
I0
sg6
I0
sg7
I0
sg8
F1.2000000000000002
sg9
I0
sg10
I0
saa(lp86
V2015-10-15
p87
a(dp88
g5
I0
sg6
F0.80000000000000004
sg7
I0
sg8
F0.80000000000000004
sg9
I0
sg10
I0
saa(lp89
V2015-10-14
p90
a(dp91
g5
I0
sg6
F1.6000000000000001
sg7
I0
sg8
F1.6000000000000001
sg9
I0
sg10
F1.6000000000000001
saa(lp92
V2015-09-30
p93
a(dp94
g5
I0
sg6
I0
sg7
I0
sg8
I0
sg9
I0
sg10
I0
saa(lp95
V2015-09-30
p96
a(dp97
g5
F0.80000000000000004
sg6
F0.80000000000000004
sg7
I0
sg8
F1.6000000000000001
sg9
I0
sg10
I0
saa(lp98
V2015-09-29
p99
a(dp100
g5
I0
sg6
F0.80000000000000004
sg7
F0.80000000000000004
sg8
F0.80000000000000004
sg9
I0
sg10
I0
saa(lp101
V2015-09-24
p102
a(dp103
g5
I0
sg6
I0
sg7
I0
sg8
F3.2000000000000002
sg9
I0
sg10
I0
saa(lp104
V2015-09-23
p105
a(dp106
g5
I0
sg6
F-1.2
sg7
I0
sg8
F-0.39999999999999991
sg9
I0
sg10
I0
saa(lp107
V2015-09-22
p108
a(dp109
g5
I0
sg6
I0
sg7
I0
sg8
F0.80000000000000004
sg9
I0
sg10
I0
saa(lp110
V2015-09-16
p111
a(dp112
g5
I0
sg6
F0.80000000000000004
sg7
I0
sg8
F0.80000000000000004
sg9
I0
sg10
I0
saa(lp113
V2015-09-16
p114
a(dp115
g5
I0
sg6
I0
sg7
I0
sg8
F0.80000000000000004
sg9
I0
sg10
I0
saa(lp116
V2015-09-16
p117
a(dp118
g5
I0
sg6
I0
sg7
I0
sg8
F1.6000000000000001
sg9
I0
sg10
I0
saa(lp119
V2015-09-11
p120
a(dp121
g5
I0
sg6
F-0.39999999999999991
sg7
F-0.39999999999999991
sg8
F-0.39999999999999991
sg9
I0
sg10
I0
saa(lp122
V2015-09-11
p123
a(dp124
g5
I0
sg6
I0
sg7
I0
sg8
F1.6000000000000001
sg9
I0
sg10
I0
saa(lp125
V2015-09-11
p126
a(dp127
g5
I0
sg6
F1.6000000000000001
sg7
F0.80000000000000004
sg8
F4.4408920985006262e-16
sg9
I0
sg10
I0
saa(lp128
V2015-09-07
p129
a(dp130
g5
F3.2000000000000002
sg6
I0
sg7
I0
sg8
F3.2000000000000002
sg9
I0
sg10
I0
saa(lp131
V2015-09-06
p132
a(dp133
g5
I0
sg6
I0
sg7
I0
sg8
F-0.39999999999999991
sg9
I0
sg10
I0
saa(lp134
V2015-09-04
p135
a(dp136
g5
I0
sg6
F0.80000000000000004
sg7
I0
sg8
F-0.39999999999999991
sg9
I0
sg10
I0
saa(lp137
V2015-08-31
p138
a(dp139
g5
I0
sg6
F1.2000000000000002
sg7
I0
sg8
F1.2000000000000002
sg9
I0
sg10
I0
saa(lp140
V2015-08-31
p141
a(dp142
g5
F0.80000000000000004
sg6
I0
sg7
F0.80000000000000004
sg8
F1.6000000000000001
sg9
I0
sg10
I0
saa(lp143
V2015-08-31
p144
a(dp145
g5
I0
sg6
I0
sg7
I0
sg8
F0.80000000000000004
sg9
F0.80000000000000004
sg10
I0
saa(lp146
V2015-08-28
p147
a(dp148
g5
I0
sg6
I0
sg7
I0
sg8
I0
sg9
I0
sg10
I0
saa(lp149
V2015-08-27
p150
a(dp151
g5
I0
sg6
I0
sg7
I0
sg8
F2.4000000000000004
sg9
I0
sg10
I0
saa(lp152
V2015-08-26
p153
a(dp154
g5
I0
sg6
I0
sg7
I0
sg8
F2.0000000000000004
sg9
I0
sg10
I0
saa(lp155
V2015-08-22
p156
a(dp157
g5
F-0.39999999999999991
sg6
I0
sg7
I0
sg8
F-0.79999999999999982
sg9
I0
sg10
I0
saa(lp158
V2015-08-22
p159
a(dp160
g5
I0
sg6
I0
sg7
I0
sg8
F1.6000000000000001
sg9
F1.6000000000000001
sg10
I0
saa(lp161
V2015-08-21
p162
a(dp163
g5
I0
sg6
F3.5999999999999996
sg7
F3.5999999999999996
sg8
F3.5999999999999996
sg9
F3.5999999999999996
sg10
I0
saa(lp164
V2015-08-17
p165
a(dp166
g5
F-2.3999999999999999
sg6
F-2.3999999999999999
sg7
I0
sg8
F-2.3999999999999995
sg9
I0
sg10
I0
saa(lp167
V2015-08-16
p168
a(dp169
g5
I0
sg6
I0
sg7
I0
sg8
F0.80000000000000004
sg9
I0
sg10
I0
saa(lp170
V2015-08-16
p171
a(dp172
g5
I0
sg6
F-1.5999999999999999
sg7
I0
sg8
F-0.79999999999999982
sg9
I0
sg10
F-1.5999999999999999
saa(lp173
V2015-08-12
p174
a(dp175
g5
I0
sg6
F0.80000000000000004
sg7
I0
sg8
F16.400000000000006
sg9
F0.80000000000000004
sg10
I0
saa(lp176
V2015-08-12
p177
a(dp178
g5
I0
sg6
I0
sg7
I0
sg8
I0
sg9
I0
sg10
I0
saa(lp179
V2015-08-12
p180
a(dp181
g5
I0
sg6
I0
sg7
I0
sg8
F2.4000000000000004
sg9
I0
sg10
I0
saa(lp182
V2015-08-11
p183
a(dp184
g5
I0
sg6
I0
sg7
I0
sg8
I0
sg9
I0
sg10
I0
saa(lp185
V2015-08-10
p186
a(dp187
g5
F1.6000000000000001
sg6
F-1.2
sg7
F1.6000000000000001
sg8
F11.600000000000005
sg9
F0.40000000000000013
sg10
F3.2000000000000002
saa(lp188
V2015-08-09
p189
a(dp190
g5
I0
sg6
F4.7999999999999998
sg7
I0
sg8
F6.8000000000000007
sg9
F7.2000000000000002
sg10
I0
saa(lp191
V2015-08-05
p192
a(dp193
g5
I0
sg6
F0.80000000000000004
sg7
I0
sg8
F0.80000000000000004
sg9
F0.80000000000000004
sg10
I0
saa(lp194
V2015-08-05
p195
a(dp196
g5
F2.4000000000000004
sg6
F2.4000000000000004
sg7
F2.4000000000000004
sg8
F2.4000000000000004
sg9
F2.4000000000000004
sg10
I0
saa(lp197
V2015-08-05
p198
a(dp199
g5
I0
sg6
I0
sg7
I0
sg8
F-1.2
sg9
I0
sg10
I0
saa(lp200
V2015-08-01
p201
a(dp202
g5
F0.40000000000000013
sg6
I0
sg7
I0
sg8
F0.40000000000000013
sg9
I0
sg10
I0
saa(lp203
V2015-07-30
p204
a(dp205
g5
I0
sg6
F-0.79999999999999982
sg7
I0
sg8
F-0.79999999999999982
sg9
I0
sg10
I0
saa(lp206
V2015-07-30
p207
a(dp208
g5
I0
sg6
I0
sg7
I0
sg8
I0
sg9
I0
sg10
I0
saa(lp209
V2015-07-27
p210
a(dp211
g5
I0
sg6
F-1.5999999999999999
sg7
I0
sg8
F0.40000000000000058
sg9
F0.40000000000000013
sg10
I0
saa(lp212
V2015-07-25
p213
a(dp214
g5
I0
sg6
I0
sg7
F0.80000000000000004
sg8
F3.2000000000000002
sg9
F0.80000000000000004
sg10
I0
saa(lp215
V2015-07-25
p216
a(dp217
g5
I0
sg6
I0
sg7
I0
sg8
I0
sg9
I0
sg10
I0
saa(lp218
V2015-07-23
p219
a(dp220
g5
I0
sg6
F-1.2
sg7
I0
sg8
F-1.2
sg9
I0
sg10
I0
saa(lp221
V2015-07-23
p222
a(dp223
g5
I0
sg6
F0.80000000000000004
sg7
I0
sg8
F2.4000000000000004
sg9
I0
sg10
F1.6000000000000001
saa(lp224
V2015-07-22
p225
a(dp226
g5
I0
sg6
F-0.39999999999999991
sg7
I0
sg8
F-0.39999999999999991
sg9
I0
sg10
I0
saa(lp227
V2015-07-21
p228
a(dp229
g5
I0
sg6
I0
sg7
I0
sg8
I0
sg9
I0
sg10
I0
saa(lp230
V2015-07-21
p231
a(dp232
g5
I0
sg6
F0.80000000000000004
sg7
I0
sg8
F1.6000000000000001
sg9
I0
sg10
I0
saa(lp233
V2015-07-20
p234
a(dp235
g5
I0
sg6
I0
sg7
I0
sg8
F2.4000000000000004
sg9
F2.4000000000000004
sg10
I0
saa(lp236
V2015-07-18
p237
a(dp238
g5
I0
sg6
I0
sg7
I0
sg8
F4
sg9
I0
sg10
I0
saa(lp239
V2015-07-17
p240
a(dp241
g5
I0
sg6
I0
sg7
I0
sg8
F-1.2
sg9
I0
sg10
I0
saa(lp242
V2015-07-17
p243
a(dp244
g5
I0
sg6
I0
sg7
I0
sg8
I0
sg9
I0
sg10
I0
saa(lp245
V2015-07-15
p246
a(dp247
g5
I0
sg6
I0
sg7
I0
sg8
F0.80000000000000004
sg9
I0
sg10
I0
saa(lp248
V2015-07-15
p249
a(dp250
g5
F1.6000000000000001
sg6
F-0.39999999999999991
sg7
I0
sg8
F2.0000000000000004
sg9
I0
sg10
I0
saa(lp251
V2015-07-15
p252
a(dp253
g5
I0
sg6
I0
sg7
I0
sg8
F3.6000000000000005
sg9
I0
sg10
I0
saa(lp254
V2015-07-13
p255
a(dp256
g5
I0
sg6
I0
sg7
F0.80000000000000004
sg8
F0.80000000000000004
sg9
F0.80000000000000004
sg10
F0.80000000000000004
saa(lp257
V2015-07-13
p258
a(dp259
g5
I0
sg6
I0
sg7
F0.80000000000000004
sg8
F1.6000000000000001
sg9
I0
sg10
I0
saa(lp260
V2015-07-13
p261
a(dp262
g5
I0
sg6
I0
sg7
I0
sg8
F0.80000000000000004
sg9
I0
sg10
I0
saa(lp263
V2015-07-10
p264
a(dp265
g5
I0
sg6
I0
sg7
I0
sg8
I0
sg9
I0
sg10
I0
saa(lp266
V2015-07-10
p267
a(dp268
g5
I0
sg6
I0
sg7
I0
sg8
F-1.2
sg9
I0
sg10
I0
saa(lp269
V2015-07-09
p270
a(dp271
g5
I0
sg6
F1.6000000000000001
sg7
I0
sg8
F1.6000000000000001
sg9
I0
sg10
I0
saa(lp272
V2015-07-08
p273
a(dp274
g5
I0
sg6
I0
sg7
I0
sg8
F-1.2
sg9
I0
sg10
I0
saa(lp275
V2015-07-07
p276
a(dp277
g5
I0
sg6
F2.4000000000000004
sg7
I0
sg8
F2.4000000000000004
sg9
I0
sg10
I0
saa(lp278
V2015-07-07
p279
a(dp280
g5
I0
sg6
F1.6000000000000001
sg7
I0
sg8
F3.2000000000000002
sg9
F1.6000000000000001
sg10
I0
saa(lp281
V2015-07-05
p282
a(dp283
g5
I0
sg6
F-0.39999999999999991
sg7
I0
sg8
F3.1999999999999997
sg9
F0.80000000000000004
sg10
F0.80000000000000004
saa(lp284
V2015-07-04
p285
a(dp286
g5
I0
sg6
F0.80000000000000004
sg7
I0
sg8
F3.2000000000000002
sg9
F0.80000000000000004
sg10
I0
saa(lp287
V2015-07-04
p288
a(dp289
g5
I0
sg6
F-2.3999999999999999
sg7
I0
sg8
F0.40000000000000036
sg9
F-0.39999999999999991
sg10
I0
saa(lp290
V2015-07-02
p291
a(dp292
g5
I0
sg6
I0
sg7
I0
sg8
F-0.39999999999999991
sg9
I0
sg10
I0
saa(lp293
V2015-07-02
p294
a(dp295
g5
F0.80000000000000004
sg6
I0
sg7
F1.6000000000000001
sg8
F4
sg9
I0
sg10
I0
saa(lp296
V2015-07-02
p297
a(dp298
g5
I0
sg6
I0
sg7
I0
sg8
F0.40000000000000013
sg9
F0.80000000000000004
sg10
I0
saa(lp299
V2015-06-29
p300
a(dp301
g5
F-4.7999999999999998
sg6
I0
sg7
I0
sg8
F-4.7999999999999998
sg9
I0
sg10
I0
saa(lp302
V2015-06-29
p303
a(dp304
g5
F-3.5999999999999996
sg6
I0
sg7
I0
sg8
F-3.5999999999999996
sg9
I0
sg10
I0
saa(lp305
V2015-06-29
p306
a(dp307
g5
I0
sg6
I0
sg7
I0
sg8
F-1.2
sg9
I0
sg10
I0
saa(lp308
V2015-06-27
p309
a(dp310
g5
I0
sg6
I0
sg7
I0
sg8
F0.80000000000000004
sg9
I0
sg10
I0
saa(lp311
V2015-06-27
p312
a(dp313
g5
I0
sg6
I0
sg7
F1.6000000000000001
sg8
F1.6000000000000001
sg9
F1.6000000000000001
sg10
I0
saa(lp314
V2015-06-26
p315
a(dp316
g5
I0
sg6
F-2.3999999999999999
sg7
F0.80000000000000004
sg8
F-3.5999999999999996
sg9
F-0.39999999999999991
sg10
I0
saa(lp317
V2015-06-24
p318
a(dp319
g5
F0.80000000000000004
sg6
F0.80000000000000004
sg7
I0
sg8
F1.6000000000000001
sg9
I0
sg10
I0
saa(lp320
V2015-06-24
p321
a(dp322
g5
I0
sg6
F-1.2
sg7
I0
sg8
F-1.5999999999999999
sg9
I0
sg10
F-0.39999999999999991
saa(lp323
V2015-06-24
p324
a(dp325
g5
I0
sg6
I0
sg7
I0
sg8
I0
sg9
I0
sg10
I0
saa(lp326
V2015-06-22
p327
a(dp328
g5
I0
sg6
I0
sg7
I0
sg8
F3.2000000000000002
sg9
F1.6000000000000001
sg10
I0
saa(lp329
V2015-06-22
p330
a(dp331
g5
I0
sg6
F-1.2
sg7
I0
sg8
F-1.2
sg9
I0
sg10
I0
saa(lp332
V2015-06-22
p333
a(dp334
g5
I0
sg6
I0
sg7
I0
sg8
F0.80000000000000004
sg9
I0
sg10
I0
saa(lp335
V2015-06-21
p336
a(dp337
g5
I0
sg6
F-0.39999999999999991
sg7
I0
sg8
F-0.79999999999999982
sg9
I0
sg10
I0
saa(lp338
V2015-06-21
p339
a(dp340
g5
I0
sg6
F3.2000000000000002
sg7
F3.2000000000000002
sg8
F3.2000000000000002
sg9
F3.2000000000000002
sg10
F3.2000000000000002
saa(lp341
V2015-06-21
p342
a(dp343
g5
I0
sg6
I0
sg7
F0.80000000000000004
sg8
F1.6000000000000001
sg9
I0
sg10
I0
saa(lp344
V2015-06-19
p345
a(dp346
g5
I0
sg6
F1.6000000000000001
sg7
I0
sg8
F1.6000000000000001
sg9
I0
sg10
I0
saa(lp347
V2015-06-19
p348
a(dp349
g5
I0
sg6
I0
sg7
F0.80000000000000004
sg8
F0.80000000000000004
sg9
F0.80000000000000004
sg10
I0
saa(lp350
V2015-06-19
p351
a(dp352
g5
I0
sg6
I0
sg7
F2.4000000000000004
sg8
F2.4000000000000004
sg9
I0
sg10
I0
saa(lp353
V2015-06-17
p354
a(dp355
g5
I0
sg6
I0
sg7
F0.80000000000000004
sg8
F1.6000000000000001
sg9
I0
sg10
I0
saa(lp356
V2015-06-17
p357
a(dp358
g5
I0
sg6
I0
sg7
I0
sg8
F1.2000000000000002
sg9
F-0.39999999999999991
sg10
I0
saa(lp359
V2015-06-17
p360
a(dp361
g5
I0
sg6
F2.4000000000000004
sg7
F2.4000000000000004
sg8
F2.4000000000000004
sg9
F2.4000000000000004
sg10
I0
saa(lp362
V2015-06-14
p363
a(dp364
g5
I0
sg6
I0
sg7
I0
sg8
I0
sg9
I0
sg10
I0
saa(lp365
V2015-06-12
p366
a(dp367
g5
I0
sg6
I0
sg7
I0
sg8
F-0.39999999999999991
sg9
I0
sg10
I0
saa(lp368
V2015-06-12
p369
a(dp370
g5
I0
sg6
I0
sg7
I0
sg8
I0
sg9
I0
sg10
I0
saa(lp371
V2015-06-11
p372
a(dp373
g5
I0
sg6
I0
sg7
I0
sg8
F2
sg9
F0.80000000000000004
sg10
I0
saa(lp374
V2015-06-11
p375
a(dp376
g5
I0
sg6
I0
sg7
I0
sg8
F-1.2
sg9
I0
sg10
I0
saa(lp377
V2015-06-11
p378
a(dp379
g5
F-0.39999999999999991
sg6
I0
sg7
I0
sg8
F-0.39999999999999991
sg9
I0
sg10
I0
saa(lp380
V2015-06-08
p381
a(dp382
g5
F-0.39999999999999991
sg6
I0
sg7
I0
sg8
F-0.39999999999999991
sg9
I0
sg10
I0
saa(lp383
V2015-06-08
p384
a(dp385
g5
I0
sg6
I0
sg7
I0
sg8
F1.6000000000000001
sg9
I0
sg10
I0
saa(lp386
V2015-06-08
p387
a(dp388
g5
I0
sg6
I0
sg7
I0
sg8
F-1.2
sg9
I0
sg10
I0
saa(lp389
V2015-06-04
p390
a(dp391
g5
I0
sg6
I0
sg7
I0
sg8
F3.2000000000000002
sg9
I0
sg10
I0
saa(lp392
V2015-06-04
p393
a(dp394
g5
I0
sg6
F3.2000000000000002
sg7
F3.2000000000000002
sg8
F3.2000000000000002
sg9
I0
sg10
I0
saa(lp395
V2015-06-04
p396
a(dp397
g5
I0
sg6
F1.6000000000000001
sg7
F1.6000000000000001
sg8
F2.4000000000000004
sg9
I0
sg10
F1.6000000000000001
saa(lp398
V2015-06-01
p399
a(dp400
g5
F2.4000000000000004
sg6
I0
sg7
I0
sg8
F2.0000000000000004
sg9
F2.4000000000000004
sg10
I0
saa(lp401
V2015-06-01
p402
a(dp403
g5
I0
sg6
I0
sg7
I0
sg8
F0.40000000000000013
sg9
F0.40000000000000013
sg10
I0
saa(lp404
V2015-05-31
p405
a(dp406
g5
I0
sg6
I0
sg7
I0
sg8
F4
sg9
F1.6000000000000001
sg10
I0
saa(lp407
V2015-05-29
p408
a(dp409
g5
I0
sg6
I0
sg7
I0
sg8
F3.2000000000000002
sg9
I0
sg10
I0
saa(lp410
V2015-05-29
p411
a(dp412
g5
I0
sg6
F-1.2
sg7
I0
sg8
F2.2204460492503131e-16
sg9
I0
sg10
I0
saa(lp413
V2015-05-29
p414
a(dp415
g5
I0
sg6
F0.80000000000000004
sg7
I0
sg8
F4
sg9
I0
sg10
I0
saa(lp416
V2015-05-27
p417
a(dp418
g5
I0
sg6
I0
sg7
I0
sg8
I0
sg9
I0
sg10
I0
saa(lp419
V2015-05-27
p420
a(dp421
g5
I0
sg6
I0
sg7
I0
sg8
F2.8000000000000007
sg9
I0
sg10
I0
saa(lp422
V2015-05-27
p423
a(dp424
g5
I0
sg6
F0.80000000000000004
sg7
F0.80000000000000004
sg8
F0.40000000000000013
sg9
I0
sg10
I0
saa(lp425
V2015-05-25
p426
a(dp427
g5
F2.4000000000000004
sg6
I0
sg7
I0
sg8
F6.3999999999999995
sg9
F0.80000000000000004
sg10
I0
saa(lp428
V2015-05-25
p429
a(dp430
g5
F0.80000000000000004
sg6
I0
sg7
I0
sg8
F-0.79999999999999982
sg9
I0
sg10
I0
saa(lp431
V2015-05-25
p432
a(dp433
g5
I0
sg6
F3.2000000000000002
sg7
F3.2000000000000002
sg8
F3.2000000000000002
sg9
F3.2000000000000002
sg10
I0
saa(lp434
V2015-05-24
p435
a(dp436
g5
I0
sg6
I0
sg7
I0
sg8
F2
sg9
I0
sg10
F2
saa(lp437
V2015-05-24
p438
a(dp439
g5
I0
sg6
I0
sg7
I0
sg8
F2.4000000000000004
sg9
I0
sg10
I0
saa(lp440
V2015-05-23
p441
a(dp442
g5
I0
sg6
F0.80000000000000004
sg7
I0
sg8
F0.80000000000000004
sg9
I0
sg10
I0
saa(lp443
V2015-05-22
p444
a(dp445
g5
I0
sg6
I0
sg7
I0
sg8
I0
sg9
I0
sg10
I0
saa(lp446
V2015-05-22
p447
a(dp448
g5
I0
sg6
I0
sg7
I0
sg8
I0
sg9
I0
sg10
I0
saa(lp449
V2015-05-22
p450
a(dp451
g5
I0
sg6
I0
sg7
I0
sg8
F1.6000000000000001
sg9
F0.80000000000000004
sg10
I0
saa(lp452
V2015-05-21
p453
a(dp454
g5
I0
sg6
I0
sg7
I0
sg8
F1.6000000000000001
sg9
I0
sg10
I0
saa(lp455
V2015-05-21
p456
a(dp457
g5
I0
sg6
F-1.2
sg7
F-1.2
sg8
F-1.2
sg9
F-1.2
sg10
I0
saa(lp458
V2015-05-21
p459
a(dp460
g5
I0
sg6
I0
sg7
I0
sg8
F1.6000000000000001
sg9
I0
sg10
I0
saa(lp461
V2015-05-20
p462
a(dp463
g5
I0
sg6
I0
sg7
I0
sg8
F2.4000000000000004
sg9
I0
sg10
I0
saa(lp464
V2015-05-20
p465
a(dp466
g5
I0
sg6
I0
sg7
I0
sg8
F0.40000000000000013
sg9
F0.80000000000000004
sg10
I0
saa(lp467
V2015-05-20
p468
a(dp469
g5
I0
sg6
I0
sg7
I0
sg8
I0
sg9
I0
sg10
I0
saa(lp470
V2015-05-19
p471
a(dp472
g5
F-0.39999999999999991
sg6
I0
sg7
I0
sg8
F-0.39999999999999991
sg9
I0
sg10
I0
saa(lp473
V2015-05-19
p474
a(dp475
g5
I0
sg6
I0
sg7
I0
sg8
I0
sg9
I0
sg10
I0
saa(lp476
V2015-05-19
p477
a(dp478
g5
I0
sg6
I0
sg7
I0
sg8
F0.80000000000000004
sg9
I0
sg10
I0
saa(lp479
V2015-05-19
p480
a(dp481
g5
I0
sg6
F1.6000000000000001
sg7
F1.6000000000000001
sg8
F1.6000000000000001
sg9
I0
sg10
I0
saa(lp482
V2015-05-18
p483
a(dp484
g5
F-0.39999999999999969
sg6
F-0.39999999999999969
sg7
I0
sg8
F-0.39999999999999969
sg9
F-0.39999999999999969
sg10
I0
saa(lp485
V2015-05-18
p486
a(dp487
g5
I0
sg6
I0
sg7
I0
sg8
F0.80000000000000004
sg9
I0
sg10
I0
saa(lp488
V2015-05-16
p489
a(dp490
g5
I0
sg6
I0
sg7
I0
sg8
F3.2000000000000002
sg9
I0
sg10
I0
saa(lp491
V2015-05-16
p492
a(dp493
g5
I0
sg6
F0.80000000000000004
sg7
I0
sg8
F7.6000000000000005
sg9
F0.80000000000000004
sg10
F0.80000000000000004
saa(lp494
V2015-05-16
p495
a(dp496
g5
I0
sg6
I0
sg7
I0
sg8
F4
sg9
I0
sg10
F0.80000000000000004
saa(lp497
V2015-05-14
p498
a(dp499
g5
I0
sg6
I0
sg7
I0
sg8
F1.6000000000000001
sg9
I0
sg10
I0
saa(lp500
V2015-05-14
p501
a(dp502
g5
F0.80000000000000004
sg6
I0
sg7
I0
sg8
F-0.39999999999999991
sg9
I0
sg10
I0
saa(lp503
V2015-05-14
p504
a(dp505
g5
F-2.7999999999999998
sg6
F-1.5999999999999999
sg7
I0
sg8
F-2.7999999999999998
sg9
I0
sg10
I0
saa(lp506
V2015-05-14
p507
a(dp508
g5
I0
sg6
F2.8000000000000007
sg7
F2.8000000000000007
sg8
F5.2000000000000011
sg9
F2.8000000000000007
sg10
I0
saa(lp509
V2015-05-14
p510
a(dp511
g5
I0
sg6
I0
sg7
I0
sg8
F-0.39999999999999991
sg9
I0
sg10
I0
saa(lp512
V2015-05-14
p513
a(dp514
g5
I0
sg6
I0
sg7
I0
sg8
F0.80000000000000004
sg9
I0
sg10
I0
saa(lp515
V2015-05-13
p516
a(dp517
g5
I0
sg6
I0
sg7
I0
sg8
F0.80000000000000004
sg9
I0
sg10
I0
saa(lp518
V2015-05-13
p519
a(dp520
g5
F1.6000000000000001
sg6
I0
sg7
I0
sg8
F1.2000000000000004
sg9
I0
sg10
I0
saa(lp521
V2015-05-13
p522
a(dp523
g5
I0
sg6
F-1.2
sg7
I0
sg8
F-1.2
sg9
I0
sg10
I0
saa(lp524
V2015-05-12
p525
a(dp526
g5
I0
sg6
I0
sg7
I0
sg8
F4
sg9
F3.2000000000000002
sg10
I0
saa(lp527
V2015-05-12
p528
a(dp529
g5
I0
sg6
I0
sg7
I0
sg8
F0.80000000000000004
sg9
I0
sg10
I0
saa(lp530
V2015-05-12
p531
a(dp532
g5
I0
sg6
I0
sg7
I0
sg8
F-1.2
sg9
I0
sg10
I0
saa(lp533
V2015-05-12
p534
a(dp535
g5
I0
sg6
I0
sg7
I0
sg8
F-0.39999999999999991
sg9
I0
sg10
I0
saa(lp536
V2015-05-12
p537
a(dp538
g5
I0
sg6
I0
sg7
I0
sg8
F3.2000000000000002
sg9
I0
sg10
I0
saa(lp539
V2015-05-12
p540
a(dp541
g5
F-1.2
sg6
I0
sg7
I0
sg8
F-0.39999999999999991
sg9
I0
sg10
I0
saa(lp542
V2015-05-10
p543
a(dp544
g5
I0
sg6
F0.80000000000000004
sg7
I0
sg8
F1.6000000000000001
sg9
I0
sg10
I0
saa(lp545
V2015-05-10
p546
a(dp547
g5
I0
sg6
I0
sg7
I0
sg8
F-0.39999999999999991
sg9
I0
sg10
I0
saa(lp548
V2015-05-10
p549
a(dp550
g5
I0
sg6
I0
sg7
I0
sg8
F4.7999999999999998
sg9
F2.4000000000000004
sg10
F2.4000000000000004
saa(lp551
V2015-05-09
p552
a(dp553
g5
I0
sg6
F1.6000000000000001
sg7
I0
sg8
F1.6000000000000001
sg9
I0
sg10
I0
saa(lp554
V2015-05-08
p555
a(dp556
g5
F2.4000000000000004
sg6
I0
sg7
I0
sg8
F2.4000000000000004
sg9
I0
sg10
I0
saa(lp557
V2015-05-08
p558
a(dp559
g5
I0
sg6
F0.80000000000000004
sg7
I0
sg8
F-0.39999999999999991
sg9
I0
sg10
I0
saa(lp560
V2015-05-07
p561
a(dp562
g5
I0
sg6
F1.6000000000000001
sg7
I0
sg8
F0.80000000000000027
sg9
I0
sg10
I0
saa(lp563
V2015-05-07
p564
a(dp565
g5
I0
sg6
F2
sg7
I0
sg8
F2
sg9
I0
sg10
I0
saa(lp566
V2015-05-07
p567
a(dp568
g5
I0
sg6
I0
sg7
I0
sg8
F-0.79999999999999982
sg9
F-0.79999999999999982
sg10
I0
saa(lp569
V2015-05-06
p570
a(dp571
g5
I0
sg6
I0
sg7
I0
sg8
F1.6000000000000001
sg9
I0
sg10
I0
saa(lp572
V2015-05-06
p573
a(dp574
g5
I0
sg6
I0
sg7
I0
sg8
F0.80000000000000004
sg9
I0
sg10
I0
saa(lp575
V2015-05-06
p576
a(dp577
g5
I0
sg6
F4.7999999999999998
sg7
F1.6000000000000001
sg8
F7.6000000000000005
sg9
F4.7999999999999998
sg10
I0
saa(lp578
V2015-05-05
p579
a(dp580
g5
I0
sg6
I0
sg7
I0
sg8
F4
sg9
F2.4000000000000004
sg10
I0
saa(lp581
V2015-05-05
p582
a(dp583
g5
I0
sg6
I0
sg7
F0.80000000000000004
sg8
F4.7999999999999998
sg9
I0
sg10
F2.4000000000000004
saa(lp584
V2015-05-05
p585
a(dp586
g5
F1.6000000000000001
sg6
F-1.2
sg7
I0
sg8
F2
sg9
F0.80000000000000004
sg10
I0
saa(lp587
V2015-05-04
p588
a(dp589
g5
I0
sg6
F0.40000000000000013
sg7
I0
sg8
F0.40000000000000013
sg9
I0
sg10
I0
saa(lp590
V2015-05-04
p591
a(dp592
g5
I0
sg6
F-0.39999999999999991
sg7
I0
sg8
F1.2000000000000002
sg9
I0
sg10
I0
saa(lp593
V2015-05-04
p594
a(dp595
g5
I0
sg6
I0
sg7
I0
sg8
F0.80000000000000004
sg9
F0.80000000000000004
sg10
I0
saa(lp596
V2015-05-02
p597
a(dp598
g5
I0
sg6
I0
sg7
I0
sg8
F0.80000000000000004
sg9
I0
sg10
I0
saa(lp599
V2015-05-02
p600
a(dp601
g5
I0
sg6
I0
sg7
I0
sg8
I0
sg9
I0
sg10
I0
saa(lp602
V2015-05-02
p603
a(dp604
g5
F-1.2
sg6
I0
sg7
I0
sg8
F0.40000000000000013
sg9
I0
sg10
I0
saa(lp605
V2015-05-01
p606
a(dp607
g5
I0
sg6
I0
sg7
I0
sg8
I0
sg9
I0
sg10
I0
saa(lp608
V2015-05-01
p609
a(dp610
g5
I0
sg6
F0.39999999999999991
sg7
F0.39999999999999991
sg8
F0.39999999999999991
sg9
I0
sg10
F0.39999999999999991
saa(lp611
V2015-04-30
p612
a(dp613
g5
F0.80000000000000004
sg6
I0
sg7
I0
sg8
F3.2000000000000002
sg9
F1.6000000000000001
sg10
I0
saa(lp614
V2015-04-29
p615
a(dp616
g5
I0
sg6
F1.2000000000000004
sg7
I0
sg8
F1.2000000000000004
sg9
F1.2000000000000004
sg10
I0
saa(lp617
V2015-04-29
p618
a(dp619
g5
I0
sg6
I0
sg7
I0
sg8
I0
sg9
I0
sg10
I0
saa(lp620
V2015-04-29
p621
a(dp622
g5
I0
sg6
I0
sg7
I0
sg8
F0.80000000000000004
sg9
I0
sg10
I0
saa(lp623
V2015-04-27
p624
a(dp625
g5
I0
sg6
I0
sg7
I0
sg8
F6
sg9
F0.80000000000000004
sg10
I0
saa(lp626
V2015-04-27
p627
a(dp628
g5
I0
sg6
F0.80000000000000004
sg7
I0
sg8
F2
sg9
F0.80000000000000004
sg10
I0
saa(lp629
V2015-04-27
p630
a(dp631
g5
I0
sg6
I0
sg7
F2.2204460492503131e-16
sg8
F2.2204460492503131e-16
sg9
F2.2204460492503131e-16
sg10
I0
saa(lp632
V2015-04-26
p633
a(dp634
g5
I0
sg6
I0
sg7
I0
sg8
F8.8000000000000025
sg9
F4
sg10
F1.6000000000000001
saa(lp635
V2015-04-26
p636
a(dp637
g5
I0
sg6
F0.80000000000000004
sg7
F0.80000000000000004
sg8
F3.2000000000000002
sg9
F0.80000000000000004
sg10
I0
saa(lp638
V2015-04-25
p639
a(dp640
g5
I0
sg6
F0.80000000000000004
sg7
I0
sg8
F0.80000000000000004
sg9
I0
sg10
I0
saa(lp641
V2015-04-24
p642
a(dp643
g5
I0
sg6
I0
sg7
I0
sg8
F3.2000000000000002
sg9
I0
sg10
I0
saa(lp644
V2015-04-24
p645
a(dp646
g5
I0
sg6
F-1.2
sg7
I0
sg8
F-1.2
sg9
I0
sg10
I0
saa(lp647
V2015-04-24
p648
a(dp649
g5
I0
sg6
I0
sg7
I0
sg8
F2.8000000000000007
sg9
F0.40000000000000013
sg10
I0
saa(lp650
V2015-04-23
p651
a(dp652
g5
I0
sg6
I0
sg7
I0
sg8
I0
sg9
I0
sg10
I0
saa(lp653
V2015-04-23
p654
a(dp655
g5
I0
sg6
I0
sg7
I0
sg8
I0
sg9
I0
sg10
I0
saa(lp656
V2015-04-23
p657
a(dp658
g5
I0
sg6
F-1.2
sg7
I0
sg8
F-1.2
sg9
I0
sg10
I0
saa(lp659
V2015-04-21
p660
a(dp661
g5
I0
sg6
F1.6000000000000001
sg7
I0
sg8
F3.2000000000000002
sg9
I0
sg10
I0
saa(lp662
V2015-04-21
p663
a(dp664
g5
F2.4000000000000004
sg6
F2.4000000000000004
sg7
I0
sg8
F4.4000000000000004
sg9
I0
sg10
I0
saa(lp665
V2015-04-21
p666
a(dp667
g5
I0
sg6
I0
sg7
I0
sg8
F-0.39999999999999991
sg9
F-1.2
sg10
I0
saa(lp668
V2015-04-20
p669
a(dp670
g5
I0
sg6
I0
sg7
I0
sg8
F0.80000000000000004
sg9
I0
sg10
I0
saa(lp671
V2015-04-20
p672
a(dp673
g5
I0
sg6
I0
sg7
I0
sg8
F0.80000000000000004
sg9
I0
sg10
F0.80000000000000004
saa(lp674
V2015-04-19
p675
a(dp676
g5
I0
sg6
I0
sg7
I0
sg8
F2.4000000000000004
sg9
I0
sg10
I0
saa(lp677
V2015-04-18
p678
a(dp679
g5
I0
sg6
F0.80000000000000027
sg7
I0
sg8
F0.80000000000000027
sg9
F0.80000000000000027
sg10
F0.80000000000000027
saa(lp680
V2015-04-18
p681
a(dp682
g5
I0
sg6
I0
sg7
I0
sg8
I0
sg9
I0
sg10
I0
saa(lp683
V2015-04-18
p684
a(dp685
g5
I0
sg6
I0
sg7
I0
sg8
F2.4000000000000004
sg9
I0
sg10
I0
saa(lp686
V2015-04-17
p687
a(dp688
g5
F1.6000000000000001
sg6
I0
sg7
I0
sg8
F1.6000000000000001
sg9
I0
sg10
I0
saa(lp689
V2015-04-17
p690
a(dp691
g5
I0
sg6
F1.6000000000000001
sg7
I0
sg8
F1.6000000000000001
sg9
I0
sg10
I0
saa(lp692
V2015-04-17
p693
a(dp694
g5
I0
sg6
I0
sg7
I0
sg8
I0
sg9
I0
sg10
I0
saa(lp695
V2015-04-16
p696
a(dp697
g5
I0
sg6
F3.2000000000000002
sg7
I0
sg8
F5.6000000000000005
sg9
F3.2000000000000002
sg10
F5.6000000000000005
saa(lp698
V2015-04-16
p699
a(dp700
g5
I0
sg6
F0.80000000000000004
sg7
I0
sg8
F0.80000000000000004
sg9
I0
sg10
F0.80000000000000004
saa(lp701
V2015-04-16
p702
a(dp703
g5
F0.80000000000000004
sg6
I0
sg7
I0
sg8
F0.80000000000000004
sg9
I0
sg10
I0
saa(lp704
V2015-04-14
p705
a(dp706
g5
I0
sg6
I0
sg7
F0.80000000000000004
sg8
F0.80000000000000004
sg9
I0
sg10
I0
saa(lp707
V2015-04-14
p708
a(dp709
g5
I0
sg6
I0
sg7
I0
sg8
F0.80000000000000004
sg9
I0
sg10
I0
saa(lp710
V2015-04-14
p711
a(dp712
g5
I0
sg6
I0
sg7
I0
sg8
F4
sg9
I0
sg10
I0
saa(lp713
V2015-04-12
p714
a(dp715
g5
F0.80000000000000004
sg6
I0
sg7
I0
sg8
F2.7999999999999998
sg9
I0
sg10
I0
saa(lp716
V2015-04-12
p717
a(dp718
g5
I0
sg6
F2
sg7
I0
sg8
F2
sg9
I0
sg10
I0
saa(lp719
V2015-04-12
p720
a(dp721
g5
I0
sg6
F1.6000000000000001
sg7
I0
sg8
F5.2000000000000002
sg9
I0
sg10
I0
saa(lp722
V2015-04-11
p723
a(dp724
g5
I0
sg6
I0
sg7
I0
sg8
F2.0000000000000004
sg9
I0
sg10
I0
saa(lp725
V2015-04-11
p726
a(dp727
g5
I0
sg6
I0
sg7
I0
sg8
F1.6000000000000001
sg9
I0
sg10
I0
saa(lp728
V2015-04-11
p729
a(dp730
g5
I0
sg6
F1.6000000000000001
sg7
I0
sg8
F1.6000000000000001
sg9
I0
sg10
I0
saa(lp731
V2015-04-10
p732
a(dp733
g5
I0
sg6
I0
sg7
I0
sg8
F-3.5999999999999996
sg9
I0
sg10
I0
saa(lp734
V2015-04-09
p735
a(dp736
g5
I0
sg6
F1.2000000000000002
sg7
F-1.2
sg8
F1.6000000000000005
sg9
I0
sg10
I0
saa(lp737
V2015-04-09
p738
a(dp739
g5
I0
sg6
I0
sg7
I0
sg8
F1.6000000000000001
sg9
I0
sg10
F1.6000000000000001
saa(lp740
V2015-04-07
p741
a(dp742
g5
I0
sg6
F7.2000000000000011
sg7
F1.2000000000000002
sg8
F11.600000000000003
sg9
F3.6000000000000001
sg10
F3.6000000000000001
saa(lp743
V2015-04-07
p744
a(dp745
g5
I0
sg6
F-1.2
sg7
F-1.2
sg8
F2.2204460492503131e-16
sg9
I0
sg10
I0
saa(lp746
V2015-04-07
p747
a(dp748
g5
F-0.39999999999999991
sg6
I0
sg7
I0
sg8
F1.2000000000000002
sg9
I0
sg10
I0
saa(lp749
V2015-04-06
p750
a(dp751
g5
F2.4000000000000004
sg6
F2.4000000000000004
sg7
I0
sg8
F3.2000000000000002
sg9
I0
sg10
I0
saa(lp752
V2015-04-06
p753
a(dp754
g5
I0
sg6
I0
sg7
I0
sg8
F0.80000000000000004
sg9
I0
sg10
I0
saa(lp755
V2015-04-06
p756
a(dp757
g5
F-1.2
sg6
I0
sg7
I0
sg8
F-0.39999999999999991
sg9
I0
sg10
I0
saa(lp758
V2015-04-03
p759
a(dp760
g5
I0
sg6
I0
sg7
I0
sg8
I0
sg9
I0
sg10
I0
saa(lp761
V2015-04-03
p762
a(dp763
g5
I0
sg6
F0.40000000000000013
sg7
F0.40000000000000013
sg8
F0.40000000000000013
sg9
I0
sg10
I0
saa(lp764
V2015-04-03
p765
a(dp766
g5
I0
sg6
F-1.2
sg7
I0
sg8
F-1.2
sg9
F-1.2
sg10
I0
saa(lp767
V2015-04-01
p768
a(dp769
g5
I0
sg6
I0
sg7
I0
sg8
I0
sg9
I0
sg10
I0
saa(lp770
V2015-04-01
p771
a(dp772
g5
I0
sg6
F-1.2
sg7
I0
sg8
F0.40000000000000013
sg9
I0
sg10
I0
saa(lp773
V2015-04-01
p774
a(dp775
g5
I0
sg6
I0
sg7
I0
sg8
F-0.39999999999999991
sg9
I0
sg10
I0
saa(lp776
V2015-03-31
p777
a(dp778
g5
I0
sg6
I0
sg7
I0
sg8
F2
sg9
F-0.39999999999999991
sg10
I0
saa(lp779
V2015-03-31
p780
a(dp781
g5
I0
sg6
I0
sg7
I0
sg8
F0.80000000000000004
sg9
I0
sg10
I0
saa(lp782
V2015-03-31
p783
a(dp784
g5
I0
sg6
F2.0000000000000004
sg7
I0
sg8
F2.0000000000000004
sg9
I0
sg10
I0
saa(lp785
V2015-03-30
p786
a(dp787
g5
I0
sg6
I0
sg7
F0.80000000000000004
sg8
F0.40000000000000013
sg9
I0
sg10
F0.80000000000000004
saa(lp788
V2015-03-30
p789
a(dp790
g5
I0
sg6
I0
sg7
I0
sg8
F1.6000000000000001
sg9
I0
sg10
I0
saa(lp791
V2015-03-30
p792
a(dp793
g5
I0
sg6
I0
sg7
I0
sg8
F0.80000000000000004
sg9
I0
sg10
I0
saa(lp794
V2015-03-29
p795
a(dp796
g5
I0
sg6
I0
sg7
F0.80000000000000004
sg8
F1.6000000000000001
sg9
I0
sg10
I0
saa(lp797
V2015-03-28
p798
a(dp799
g5
I0
sg6
I0
sg7
I0
sg8
F0.80000000000000004
sg9
I0
sg10
I0
saa(lp800
V2015-03-28
p801
a(dp802
g5
I0
sg6
I0
sg7
I0
sg8
F2.4000000000000004
sg9
F2.4000000000000004
sg10
I0
saa(lp803
V2015-03-27
p804
a(dp805
g5
I0
sg6
F0.80000000000000004
sg7
I0
sg8
F0.80000000000000004
sg9
I0
sg10
I0
saa(lp806
V2015-03-27
p807
a(dp808
g5
I0
sg6
I0
sg7
I0
sg8
F1.5999999999999999
sg9
I0
sg10
F0.80000000000000004
saa(lp809
V2015-03-27
p810
a(dp811
g5
I0
sg6
I0
sg7
I0
sg8
F0.80000000000000004
sg9
I0
sg10
I0
saa(lp812
V2015-03-26
p813
a(dp814
g5
I0
sg6
F0.80000000000000004
sg7
I0
sg8
F2.4000000000000004
sg9
I0
sg10
I0
saa(lp815
V2015-03-25
p816
a(dp817
g5
I0
sg6
F-0.39999999999999991
sg7
F-0.39999999999999991
sg8
F1.2000000000000002
sg9
I0
sg10
I0
saa(lp818
V2015-03-25
p819
a(dp820
g5
I0
sg6
I0
sg7
I0
sg8
F0.80000000000000004
sg9
I0
sg10
I0
saa(lp821
V2015-03-24
p822
a(dp823
g5
I0
sg6
F1.2000000000000002
sg7
I0
sg8
F2
sg9
F1.2000000000000002
sg10
I0
saa(lp824
V2015-03-24
p825
a(dp826
g5
F-1.2
sg6
I0
sg7
I0
sg8
F-1.2
sg9
I0
sg10
I0
saa(lp827
V2015-03-24
p828
a(dp829
g5
F4
sg6
I0
sg7
I0
sg8
F4
sg9
I0
sg10
I0
saa(lp830
V2015-04-01
p831
a(dp832
g5
I0
sg6
I0
sg7
I0
sg8
I0
sg9
I0
sg10
I0
saa(lp833
V2015-04-01
p834
a(dp835
g5
I0
sg6
F-1.2
sg7
I0
sg8
F0.40000000000000013
sg9
I0
sg10
I0
saa(lp836
V2015-04-01
p837
a(dp838
g5
I0
sg6
I0
sg7
I0
sg8
F-0.39999999999999991
sg9
I0
sg10
I0
saa(lp839
V2015-03-31
p840
a(dp841
g5
I0
sg6
I0
sg7
I0
sg8
F2
sg9
F-0.39999999999999991
sg10
I0
saa(lp842
V2015-03-31
p843
a(dp844
g5
I0
sg6
I0
sg7
I0
sg8
F0.80000000000000004
sg9
I0
sg10
I0
saa(lp845
V2015-03-31
p846
a(dp847
g5
I0
sg6
F2.0000000000000004
sg7
I0
sg8
F2.0000000000000004
sg9
I0
sg10
I0
saa(lp848
V2015-03-30
p849
a(dp850
g5
I0
sg6
I0
sg7
F0.80000000000000004
sg8
F0.40000000000000013
sg9
I0
sg10
F0.80000000000000004
saa(lp851
V2015-03-30
p852
a(dp853
g5
I0
sg6
I0
sg7
I0
sg8
F1.6000000000000001
sg9
I0
sg10
I0
saa(lp854
V2015-03-30
p855
a(dp856
g5
I0
sg6
I0
sg7
I0
sg8
F0.80000000000000004
sg9
I0
sg10
I0
saa(lp857
V2015-03-29
p858
a(dp859
g5
I0
sg6
I0
sg7
F0.80000000000000004
sg8
F1.6000000000000001
sg9
I0
sg10
I0
saa(lp860
V2015-03-28
p861
a(dp862
g5
I0
sg6
I0
sg7
I0
sg8
F0.80000000000000004
sg9
I0
sg10
I0
saa(lp863
V2015-03-28
p864
a(dp865
g5
I0
sg6
I0
sg7
I0
sg8
F2.4000000000000004
sg9
F2.4000000000000004
sg10
I0
saa(lp866
V2015-03-27
p867
a(dp868
g5
I0
sg6
F0.80000000000000004
sg7
I0
sg8
F0.80000000000000004
sg9
I0
sg10
I0
saa(lp869
V2015-03-27
p870
a(dp871
g5
I0
sg6
I0
sg7
I0
sg8
F1.5999999999999999
sg9
I0
sg10
F0.80000000000000004
saa(lp872
V2015-03-27
p873
a(dp874
g5
I0
sg6
I0
sg7
I0
sg8
F0.80000000000000004
sg9
I0
sg10
I0
saa(lp875
V2015-03-26
p876
a(dp877
g5
I0
sg6
F0.80000000000000004
sg7
I0
sg8
F2.4000000000000004
sg9
I0
sg10
I0
saa(lp878
V2015-03-25
p879
a(dp880
g5
I0
sg6
F-0.39999999999999991
sg7
F-0.39999999999999991
sg8
F1.2000000000000002
sg9
I0
sg10
I0
saa(lp881
V2015-03-25
p882
a(dp883
g5
I0
sg6
I0
sg7
I0
sg8
F0.80000000000000004
sg9
I0
sg10
I0
saa(lp884
V2015-03-24
p885
a(dp886
g5
I0
sg6
F1.2000000000000002
sg7
I0
sg8
F2
sg9
F1.2000000000000002
sg10
I0
saa(lp887
V2015-03-24
p888
a(dp889
g5
F-1.2
sg6
I0
sg7
I0
sg8
F-1.2
sg9
I0
sg10
I0
saa(lp890
V2015-03-24
p891
a(dp892
g5
F4
sg6
I0
sg7
I0
sg8
F4
sg9
I0
sg10
I0
saa(lp893
V2015-03-22
p894
a(dp895
g5
F2.4000000000000004
sg6
I0
sg7
I0
sg8
F2.4000000000000004
sg9
I0
sg10
I0
saa(lp896
V2015-03-22
p897
a(dp898
g5
I0
sg6
F0.80000000000000004
sg7
I0
sg8
F-1.5999999999999999
sg9
F-1.2
sg10
F-1.2
saa(lp899
V2015-03-22
p900
a(dp901
g5
I0
sg6
I0
sg7
F2.4000000000000004
sg8
F2.4000000000000004
sg9
F2.4000000000000004
sg10
I0
saa(lp902
V2015-03-20
p903
a(dp904
g5
I0
sg6
I0
sg7
I0
sg8
F0.80000000000000004
sg9
I0
sg10
I0
saa(lp905
V2015-03-19
p906
a(dp907
g5
I0
sg6
F-1.2
sg7
F0.80000000000000004
sg8
F3.6000000000000005
sg9
I0
sg10
I0
saa(lp908
V2015-03-19
p909
a(dp910
g5
I0
sg6
F2
sg7
I0
sg8
F2
sg9
I0
sg10
I0
saa(lp911
V2015-03-17
p912
a(dp913
g5
F0.80000000000000004
sg6
F-2.3999999999999999
sg7
F0.80000000000000004
sg8
F0.80000000000000071
sg9
F-2.3999999999999999
sg10
I0
saa(lp914
V2015-03-17
p915
a(dp916
g5
I0
sg6
F1.6000000000000001
sg7
I0
sg8
F1.6000000000000001
sg9
I0
sg10
I0
saa(lp917
V2015-03-17
p918
a(dp919
g5
I0
sg6
I0
sg7
I0
sg8
F-1.2
sg9
I0
sg10
I0
saa(lp920
V2015-03-16
p921
a(dp922
g5
I0
sg6
I0
sg7
I0
sg8
F-0.39999999999999991
sg9
I0
sg10
I0
saa(lp923
V2015-03-15
p924
a(dp925
g5
F-1.5999999999999999
sg6
F-1.5999999999999999
sg7
I0
sg8
F-1.5999999999999999
sg9
I0
sg10
I0
saa(lp926
V2015-03-15
p927
a(dp928
g5
I0
sg6
F-1.2
sg7
I0
sg8
F-1.2
sg9
I0
sg10
I0
saa(lp929
V2015-03-14
p930
a(dp931
g5
I0
sg6
I0
sg7
I0
sg8
F1.6000000000000001
sg9
F1.6000000000000001
sg10
I0
saa(lp932
V2015-03-14
p933
a(dp934
g5
I0
sg6
I0
sg7
I0
sg8
I0
sg9
I0
sg10
I0
saa(lp935
V2015-03-14
p936
a(dp937
g5
I0
sg6
I0
sg7
I0
sg8
F2.4000000000000004
sg9
F2.4000000000000004
sg10
I0
saa(lp938
V2015-03-13
p939
a(dp940
g5
F2.4000000000000004
sg6
I0
sg7
I0
sg8
F3.6000000000000005
sg9
I0
sg10
I0
saa(lp941
V2015-03-13
p942
a(dp943
g5
I0
sg6
I0
sg7
I0
sg8
F3.2000000000000002
sg9
I0
sg10
I0
saa(lp944
V2015-03-13
p945
a(dp946
g5
I0
sg6
F0.80000000000000004
sg7
I0
sg8
F1.6000000000000001
sg9
I0
sg10
I0
saa(lp947
V2015-03-11
p948
a(dp949
g5
F1.6000000000000001
sg6
I0
sg7
I0
sg8
F1.6000000000000001
sg9
I0
sg10
I0
saa(lp950
V2015-03-11
p951
a(dp952
g5
I0
sg6
I0
sg7
I0
sg8
I0
sg9
I0
sg10
I0
saa(lp953
V2015-03-11
p954
a(dp955
g5
I0
sg6
I0
sg7
I0
sg8
F0.80000000000000004
sg9
I0
sg10
I0
saa(lp956
V2015-03-10
p957
a(dp958
g5
I0
sg6
I0
sg7
I0
sg8
F-1.2
sg9
I0
sg10
I0
saa(lp959
V2015-03-10
p960
a(dp961
g5
F0.80000000000000004
sg6
I0
sg7
I0
sg8
F1.6000000000000001
sg9
I0
sg10
I0
saa(lp962
V2015-03-10
p963
a(dp964
g5
I0
sg6
I0
sg7
I0
sg8
F1.6000000000000001
sg9
I0
sg10
I0
saa(lp965
V2015-03-08
p966
a(dp967
g5
I0
sg6
F0.80000000000000004
sg7
F1.6000000000000001
sg8
F7.5999999999999996
sg9
I0
sg10
F1.6000000000000001
saa(lp968
V2015-03-08
p969
a(dp970
g5
I0
sg6
I0
sg7
I0
sg8
F0.80000000000000004
sg9
I0
sg10
I0
saa(lp971
V2015-03-08
p972
a(dp973
g5
I0
sg6
I0
sg7
I0
sg8
F0.80000000000000004
sg9
I0
sg10
I0
saa(lp974
V2015-03-07
p975
a(dp976
g5
I0
sg6
I0
sg7
I0
sg8
F2.4000000000000004
sg9
I0
sg10
I0
saa(lp977
V2015-03-07
p978
a(dp979
g5
I0
sg6
I0
sg7
I0
sg8
F0.80000000000000004
sg9
I0
sg10
F0.80000000000000004
saa(lp980
V2015-03-07
p981
a(dp982
g5
F0.80000000000000004
sg6
I0
sg7
I0
sg8
F-4
sg9
I0
sg10
I0
saa(lp983
V2015-03-06
p984
a(dp985
g5
I0
sg6
F0.80000000000000004
sg7
I0
sg8
F1.6000000000000001
sg9
I0
sg10
F0.80000000000000004
saa(lp986
V2015-03-06
p987
a(dp988
g5
I0
sg6
I0
sg7
I0
sg8
F1.6000000000000001
sg9
I0
sg10
I0
saa(lp989
V2015-03-06
p990
a(dp991
g5
I0
sg6
F0.80000000000000004
sg7
I0
sg8
F2
sg9
F-0.39999999999999991
sg10
I0
saa.