(lp1
(lp2
V2016-01-19
p3
a(dp4
S'Serv'
p5
I0
sS'Bat'
p6
F1.6000000000000001
sS'Perf'
p7
F-1.2
sS'OverAll'
p8
F6.7999999999999989
sS'Cam'
p9
F4.8000000000000007
sS'Look'
p10
F-1.5999999999999999
saa(lp11
V2016-01-18
p12
a(dp13
g5
I0
sg6
I0
sg7
F1.6000000000000001
sg8
F2.4000000000000004
sg9
F0.80000000000000004
sg10
I0
saa(lp14
V2016-01-18
p15
a(dp16
g5
I0
sg6
I0
sg7
I0
sg8
F-1.2
sg9
I0
sg10
I0
saa(lp17
V2016-01-18
p18
a(dp19
g5
I0
sg6
I0
sg7
I0
sg8
F0.80000000000000004
sg9
I0
sg10
I0
saa(lp20
V2016-01-18
p21
a(dp22
g5
I0
sg6
F2.4000000000000004
sg7
I0
sg8
F4
sg9
F2.4000000000000004
sg10
I0
saa(lp23
V2016-01-18
p24
a(dp25
g5
I0
sg6
I0
sg7
I0
sg8
F1.6000000000000001
sg9
F1.6000000000000001
sg10
I0
saa(lp26
V2016-01-18
p27
a(dp28
g5
I0
sg6
F2.4000000000000004
sg7
F2.4000000000000004
sg8
F3.2000000000000002
sg9
F2.4000000000000004
sg10
I0
saa(lp29
V2016-01-18
p30
a(dp31
g5
I0
sg6
F1.6000000000000001
sg7
F1.6000000000000001
sg8
F1.6000000000000001
sg9
I0
sg10
I0
saa(lp32
V2016-01-17
p33
a(dp34
g5
I0
sg6
F4
sg7
F4
sg8
F4
sg9
F4
sg10
F4
saa(lp35
V2016-01-17
p36
a(dp37
g5
I0
sg6
F0.80000000000000004
sg7
I0
sg8
F0.80000000000000004
sg9
I0
sg10
I0
saa(lp38
V2016-01-17
p39
a(dp40
g5
I0
sg6
I0
sg7
I0
sg8
F1.6000000000000001
sg9
I0
sg10
I0
saa(lp41
V2016-01-16
p42
a(dp43
g5
I0
sg6
F4
sg7
I0
sg8
F4
sg9
F4
sg10
I0
saa(lp44
V2016-01-16
p45
a(dp46
g5
I0
sg6
I0
sg7
I0
sg8
F0.40000000000000013
sg9
F0.80000000000000004
sg10
I0
saa(lp47
V2016-01-16
p48
a(dp49
g5
I0
sg6
I0
sg7
I0
sg8
F0.80000000000000004
sg9
I0
sg10
I0
saa(lp50
V2016-01-16
p51
a(dp52
g5
F-0.39999999999999991
sg6
I0
sg7
I0
sg8
F-1.9999999999999998
sg9
F-1.2
sg10
I0
saa(lp53
V2016-01-15
p54
a(dp55
g5
F2.4000000000000004
sg6
I0
sg7
I0
sg8
F2.4000000000000004
sg9
F2.4000000000000004
sg10
I0
saa(lp56
V2016-01-15
p57
a(dp58
g5
I0
sg6
I0
sg7
I0
sg8
F2.4000000000000004
sg9
F2.4000000000000004
sg10
I0
saa(lp59
V2016-01-15
p60
a(dp61
g5
I0
sg6
I0
sg7
I0
sg8
F0.80000000000000004
sg9
I0
sg10
I0
saa(lp62
V2016-01-15
p63
a(dp64
g5
F3.2000000000000002
sg6
I0
sg7
F-1.2
sg8
F2
sg9
F3.2000000000000002
sg10
I0
saa(lp65
V2016-01-15
p66
a(dp67
g5
I0
sg6
I0
sg7
I0
sg8
F0.80000000000000004
sg9
I0
sg10
I0
saa(lp68
V2016-01-15
p69
a(dp70
g5
I0
sg6
F0.80000000000000004
sg7
I0
sg8
F4.7999999999999998
sg9
F1.6000000000000001
sg10
I0
saa(lp71
V2016-01-14
p72
a(dp73
g5
I0
sg6
F0.80000000000000004
sg7
F0.80000000000000004
sg8
F2.4000000000000004
sg9
I0
sg10
I0
saa(lp74
V2016-01-14
p75
a(dp76
g5
I0
sg6
I0
sg7
I0
sg8
F2.2204460492503131e-16
sg9
F1.6000000000000001
sg10
F-0.39999999999999991
saa(lp77
V2016-01-14
p78
a(dp79
g5
I0
sg6
I0
sg7
I0
sg8
F0.80000000000000004
sg9
F0.80000000000000004
sg10
I0
saa(lp80
V2016-01-14
p81
a(dp82
g5
I0
sg6
I0
sg7
I0
sg8
F1.6000000000000001
sg9
F1.6000000000000001
sg10
I0
saa(lp83
V2016-01-13
p84
a(dp85
g5
F-1.5999999999999999
sg6
I0
sg7
I0
sg8
F-1.5999999999999999
sg9
F-1.5999999999999999
sg10
I0
saa(lp86
V2016-01-13
p87
a(dp88
g5
I0
sg6
I0
sg7
I0
sg8
F1.6000000000000001
sg9
I0
sg10
I0
saa(lp89
V2016-01-13
p90
a(dp91
g5
I0
sg6
I0
sg7
I0
sg8
F1.6000000000000001
sg9
I0
sg10
I0
saa(lp92
V2016-01-13
p93
a(dp94
g5
I0
sg6
I0
sg7
I0
sg8
F0.80000000000000004
sg9
I0
sg10
I0
saa(lp95
V2016-01-13
p96
a(dp97
g5
I0
sg6
I0
sg7
I0
sg8
F4
sg9
F2.4000000000000004
sg10
I0
saa(lp98
V2016-01-13
p99
a(dp100
g5
I0
sg6
I0
sg7
I0
sg8
F2.4000000000000004
sg9
F1.6000000000000001
sg10
I0
saa(lp101
V2016-01-12
p102
a(dp103
g5
I0
sg6
I0
sg7
I0
sg8
F0.80000000000000004
sg9
I0
sg10
I0
saa(lp104
V2016-01-12
p105
a(dp106
g5
I0
sg6
I0
sg7
I0
sg8
I0
sg9
I0
sg10
I0
saa(lp107
V2016-01-12
p108
a(dp109
g5
I0
sg6
F2.4000000000000004
sg7
I0
sg8
F2.4000000000000004
sg9
F2.4000000000000004
sg10
I0
saa(lp110
V2016-01-12
p111
a(dp112
g5
I0
sg6
I0
sg7
F1.6000000000000001
sg8
F1.6000000000000001
sg9
I0
sg10
I0
saa(lp113
V2016-01-12
p114
a(dp115
g5
I0
sg6
I0
sg7
I0
sg8
F0.80000000000000004
sg9
I0
sg10
I0
saa(lp116
V2016-01-12
p117
a(dp118
g5
I0
sg6
I0
sg7
I0
sg8
F3.6000000000000005
sg9
F2.4000000000000004
sg10
I0
saa(lp119
V2016-01-11
p120
a(dp121
g5
I0
sg6
F0.80000000000000004
sg7
I0
sg8
F1.6000000000000001
sg9
F0.80000000000000004
sg10
I0
saa(lp122
V2016-01-11
p123
a(dp124
g5
I0
sg6
I0
sg7
I0
sg8
F2.4000000000000004
sg9
F1.6000000000000001
sg10
I0
saa(lp125
V2016-01-11
p126
a(dp127
g5
I0
sg6
I0
sg7
I0
sg8
F0.80000000000000004
sg9
F0.80000000000000004
sg10
I0
saa(lp128
V2016-01-11
p129
a(dp130
g5
I0
sg6
F4
sg7
I0
sg8
F4
sg9
F4
sg10
F4
saa(lp131
V2016-01-10
p132
a(dp133
g5
F-2.7999999999999998
sg6
I0
sg7
I0
sg8
F-2.7999999999999998
sg9
F-2.7999999999999998
sg10
I0
saa(lp134
V2016-01-10
p135
a(dp136
g5
I0
sg6
I0
sg7
I0
sg8
F1.2000000000000002
sg9
F1.2000000000000002
sg10
I0
saa(lp137
V2016-01-09
p138
a(dp139
g5
I0
sg6
F-0.39999999999999991
sg7
I0
sg8
F-0.39999999999999991
sg9
F-0.39999999999999991
sg10
I0
saa(lp140
V2016-01-09
p141
a(dp142
g5
I0
sg6
I0
sg7
I0
sg8
I0
sg9
I0
sg10
I0
saa(lp143
V2016-01-09
p144
a(dp145
g5
F0.80000000000000004
sg6
I0
sg7
I0
sg8
F0.80000000000000004
sg9
I0
sg10
I0
saa(lp146
V2016-01-09
p147
a(dp148
g5
I0
sg6
F0.80000000000000004
sg7
I0
sg8
F0.80000000000000004
sg9
F0.80000000000000004
sg10
I0
saa(lp149
V2016-01-09
p150
a(dp151
g5
I0
sg6
I0
sg7
I0
sg8
F1.6000000000000001
sg9
I0
sg10
I0
saa(lp152
V2016-01-09
p153
a(dp154
g5
I0
sg6
I0
sg7
I0
sg8
F0.80000000000000004
sg9
F0.80000000000000004
sg10
I0
saa(lp155
V2016-01-09
p156
a(dp157
g5
I0
sg6
I0
sg7
I0
sg8
F1.6000000000000001
sg9
F1.6000000000000001
sg10
I0
saa(lp158
V2016-01-09
p159
a(dp160
g5
F5.5999999999999996
sg6
I0
sg7
I0
sg8
F5.5999999999999996
sg9
I0
sg10
I0
saa(lp161
V2016-01-08
p162
a(dp163
g5
I0
sg6
I0
sg7
I0
sg8
F0.80000000000000004
sg9
I0
sg10
I0
saa(lp164
V2016-01-08
p165
a(dp166
g5
I0
sg6
I0
sg7
I0
sg8
F0.80000000000000004
sg9
I0
sg10
I0
saa(lp167
V2016-01-08
p168
a(dp169
g5
I0
sg6
F2.4000000000000004
sg7
F2.4000000000000004
sg8
F2.4000000000000004
sg9
F2.4000000000000004
sg10
I0
saa(lp170
V2016-01-08
p171
a(dp172
g5
I0
sg6
I0
sg7
I0
sg8
F3.2000000000000002
sg9
F2.4000000000000004
sg10
I0
saa(lp173
V2016-01-07
p174
a(dp175
g5
I0
sg6
F0.80000000000000004
sg7
F-0.39999999999999991
sg8
F2.8000000000000007
sg9
F-0.39999999999999991
sg10
I0
saa(lp176
V2016-01-07
p177
a(dp178
g5
I0
sg6
F1.2000000000000004
sg7
I0
sg8
F1.2000000000000004
sg9
F2.4000000000000004
sg10
I0
saa(lp179
V2016-01-07
p180
a(dp181
g5
I0
sg6
I0
sg7
I0
sg8
F1.6000000000000001
sg9
I0
sg10
I0
saa(lp182
V2016-01-06
p183
a(dp184
g5
I0
sg6
I0
sg7
F1.6000000000000001
sg8
F1.2000000000000002
sg9
F-0.39999999999999991
sg10
I0
saa(lp185
V2016-01-06
p186
a(dp187
g5
I0
sg6
I0
sg7
I0
sg8
F0.80000000000000004
sg9
I0
sg10
I0
saa(lp188
V2016-01-06
p189
a(dp190
g5
F-1.2
sg6
I0
sg7
I0
sg8
F-2.3999999999999999
sg9
I0
sg10
I0
saa(lp191
V2016-01-06
p192
a(dp193
g5
I0
sg6
I0
sg7
I0
sg8
F0.80000000000000004
sg9
I0
sg10
I0
saa(lp194
V2016-01-06
p195
a(dp196
g5
I0
sg6
I0
sg7
I0
sg8
F-0.39999999999999991
sg9
I0
sg10
I0
saa(lp197
V2016-01-06
p198
a(dp199
g5
I0
sg6
I0
sg7
I0
sg8
I0
sg9
I0
sg10
I0
saa(lp200
V2016-01-06
p201
a(dp202
g5
I0
sg6
I0
sg7
F0.80000000000000004
sg8
F7.1999999999999993
sg9
I0
sg10
I0
saa(lp203
V2016-01-05
p204
a(dp205
g5
F3.2000000000000002
sg6
F3.2000000000000002
sg7
I0
sg8
F3.2000000000000002
sg9
F3.2000000000000002
sg10
I0
saa(lp206
V2016-01-05
p207
a(dp208
g5
I0
sg6
I0
sg7
I0
sg8
F1.6000000000000001
sg9
I0
sg10
I0
saa(lp209
V2016-01-05
p210
a(dp211
g5
F0.80000000000000004
sg6
F-1.2
sg7
I0
sg8
F0.40000000000000013
sg9
I0
sg10
I0
saa(lp212
V2016-01-05
p213
a(dp214
g5
I0
sg6
F0.80000000000000004
sg7
I0
sg8
F1.6000000000000001
sg9
F0.80000000000000004
sg10
F0.80000000000000004
saa(lp215
V2016-01-05
p216
a(dp217
g5
I0
sg6
I0
sg7
I0
sg8
F0.80000000000000004
sg9
I0
sg10
I0
saa(lp218
V2016-01-05
p219
a(dp220
g5
I0
sg6
F4
sg7
I0
sg8
F4
sg9
I0
sg10
I0
saa(lp221
V2016-01-05
p222
a(dp223
g5
I0
sg6
F2.4000000000000004
sg7
I0
sg8
F2.4000000000000004
sg9
F2.4000000000000004
sg10
I0
saa(lp224
V2016-01-05
p225
a(dp226
g5
I0
sg6
I0
sg7
I0
sg8
F0.80000000000000004
sg9
I0
sg10
I0
saa(lp227
V2016-01-05
p228
a(dp229
g5
I0
sg6
I0
sg7
I0
sg8
F3.2000000000000002
sg9
F3.2000000000000002
sg10
I0
saa(lp230
V2016-01-04
p231
a(dp232
g5
I0
sg6
I0
sg7
I0
sg8
F-0.79999999999999982
sg9
I0
sg10
I0
saa(lp233
V2016-01-04
p234
a(dp235
g5
I0
sg6
I0
sg7
I0
sg8
F1.6000000000000001
sg9
I0
sg10
I0
saa(lp236
V2016-01-04
p237
a(dp238
g5
I0
sg6
I0
sg7
I0
sg8
F1.6000000000000001
sg9
I0
sg10
I0
saa(lp239
V2016-01-04
p240
a(dp241
g5
I0
sg6
F-1.2
sg7
I0
sg8
F-0.79999999999999982
sg9
F0.80000000000000004
sg10
F0.80000000000000004
saa(lp242
V2016-01-04
p243
a(dp244
g5
I0
sg6
I0
sg7
I0
sg8
I0
sg9
I0
sg10
I0
saa(lp245
V2016-01-03
p246
a(dp247
g5
I0
sg6
F1.2000000000000004
sg7
F1.2000000000000004
sg8
F4.4408920985006262e-16
sg9
F1.2000000000000004
sg10
I0
saa(lp248
V2016-01-03
p249
a(dp250
g5
I0
sg6
I0
sg7
F0.80000000000000004
sg8
F0.80000000000000004
sg9
F0.80000000000000004
sg10
I0
saa(lp251
V2016-01-03
p252
a(dp253
g5
I0
sg6
I0
sg7
I0
sg8
I0
sg9
I0
sg10
I0
saa(lp254
V2016-01-03
p255
a(dp256
g5
I0
sg6
I0
sg7
I0
sg8
F2.0000000000000004
sg9
F2.0000000000000004
sg10
I0
saa(lp257
V2016-01-02
p258
a(dp259
g5
F1.6000000000000001
sg6
I0
sg7
I0
sg8
F1.6000000000000001
sg9
I0
sg10
I0
saa(lp260
V2016-01-02
p261
a(dp262
g5
I0
sg6
I0
sg7
I0
sg8
F0.80000000000000004
sg9
I0
sg10
I0
saa(lp263
V2016-01-02
p264
a(dp265
g5
I0
sg6
I0
sg7
I0
sg8
I0
sg9
I0
sg10
I0
saa(lp266
V2016-01-01
p267
a(dp268
g5
I0
sg6
I0
sg7
I0
sg8
F1.2000000000000002
sg9
F0.80000000000000004
sg10
F0.80000000000000004
saa(lp269
V2015-12-31
p270
a(dp271
g5
I0
sg6
I0
sg7
I0
sg8
F0.80000000000000004
sg9
I0
sg10
I0
saa(lp272
V2015-12-31
p273
a(dp274
g5
I0
sg6
I0
sg7
I0
sg8
F3.2000000000000002
sg9
I0
sg10
I0
saa(lp275
V2015-12-31
p276
a(dp277
g5
I0
sg6
I0
sg7
I0
sg8
F1.2000000000000002
sg9
I0
sg10
I0
saa(lp278
V2015-12-31
p279
a(dp280
g5
I0
sg6
I0
sg7
I0
sg8
F-0.39999999999999991
sg9
I0
sg10
I0
saa(lp281
V2015-12-31
p282
a(dp283
g5
I0
sg6
I0
sg7
I0
sg8
F0.40000000000000013
sg9
F-0.39999999999999991
sg10
I0
saa(lp284
V2015-12-31
p285
a(dp286
g5
I0
sg6
I0
sg7
I0
sg8
F1.6000000000000001
sg9
F0.80000000000000004
sg10
I0
saa(lp287
V2015-12-31
p288
a(dp289
g5
I0
sg6
F1.6000000000000001
sg7
I0
sg8
F4
sg9
F1.6000000000000001
sg10
I0
saa(lp290
V2015-12-31
p291
a(dp292
g5
I0
sg6
I0
sg7
F4
sg8
F4.7999999999999998
sg9
F0.80000000000000004
sg10
F0.80000000000000004
saa(lp293
V2015-12-31
p294
a(dp295
g5
I0
sg6
I0
sg7
I0
sg8
I0
sg9
I0
sg10
I0
saa(lp296
V2015-12-31
p297
a(dp298
g5
I0
sg6
I0
sg7
I0
sg8
F0.80000000000000004
sg9
I0
sg10
I0
saa(lp299
V2015-12-31
p300
a(dp301
g5
F1.6000000000000001
sg6
I0
sg7
I0
sg8
F2
sg9
I0
sg10
I0
saa(lp302
V2015-12-31
p303
a(dp304
g5
I0
sg6
I0
sg7
I0
sg8
I0
sg9
I0
sg10
I0
saa(lp305
V2015-12-31
p306
a(dp307
g5
I0
sg6
I0
sg7
I0
sg8
F0.80000000000000004
sg9
I0
sg10
I0
saa(lp308
V2015-12-30
p309
a(dp310
g5
F2.4000000000000004
sg6
I0
sg7
I0
sg8
F2.4000000000000004
sg9
I0
sg10
I0
saa(lp311
V2015-12-30
p312
a(dp313
g5
I0
sg6
I0
sg7
F3.2000000000000002
sg8
F3.2000000000000002
sg9
I0
sg10
I0
saa(lp314
V2015-12-30
p315
a(dp316
g5
I0
sg6
I0
sg7
I0
sg8
F0.80000000000000004
sg9
I0
sg10
I0
saa(lp317
V2015-12-30
p318
a(dp319
g5
I0
sg6
I0
sg7
I0
sg8
F0.40000000000000013
sg9
I0
sg10
I0
saa(lp320
V2015-12-30
p321
a(dp322
g5
F0.80000000000000004
sg6
I0
sg7
I0
sg8
F1.2000000000000002
sg9
I0
sg10
I0
saa(lp323
V2015-12-30
p324
a(dp325
g5
I0
sg6
I0
sg7
I0
sg8
F2.4000000000000004
sg9
I0
sg10
I0
saa(lp326
V2015-12-30
p327
a(dp328
g5
I0
sg6
I0
sg7
I0
sg8
F3.2000000000000002
sg9
F3.2000000000000002
sg10
I0
saa(lp329
V2015-12-30
p330
a(dp331
g5
I0
sg6
I0
sg7
I0
sg8
F0.80000000000000004
sg9
F0.80000000000000004
sg10
I0
saa(lp332
V2015-12-30
p333
a(dp334
g5
I0
sg6
I0
sg7
I0
sg8
F4.4408920985006262e-16
sg9
I0
sg10
F-0.39999999999999991
saa(lp335
V2015-12-30
p336
a(dp337
g5
I0
sg6
I0
sg7
F0.80000000000000004
sg8
F2.4000000000000004
sg9
F0.80000000000000004
sg10
I0
saa(lp338
V2015-12-30
p339
a(dp340
g5
F0.80000000000000004
sg6
I0
sg7
I0
sg8
F2.4000000000000004
sg9
I0
sg10
I0
saa(lp341
V2015-12-30
p342
a(dp343
g5
I0
sg6
I0
sg7
I0
sg8
F3.6000000000000001
sg9
I0
sg10
I0
saa(lp344
V2015-12-30
p345
a(dp346
g5
I0
sg6
I0
sg7
I0
sg8
F4.7999999999999998
sg9
I0
sg10
F2.4000000000000004
saa(lp347
V2015-12-29
p348
a(dp349
g5
I0
sg6
I0
sg7
I0
sg8
I0
sg9
I0
sg10
I0
saa(lp350
V2015-12-29
p351
a(dp352
g5
I0
sg6
I0
sg7
I0
sg8
F1.6000000000000001
sg9
I0
sg10
F1.6000000000000001
saa(lp353
V2015-12-29
p354
a(dp355
g5
I0
sg6
I0
sg7
I0
sg8
F2.4000000000000004
sg9
I0
sg10
I0
saa(lp356
V2015-12-29
p357
a(dp358
g5
I0
sg6
I0
sg7
I0
sg8
F2.4000000000000004
sg9
F1.6000000000000001
sg10
I0
saa(lp359
V2015-12-29
p360
a(dp361
g5
I0
sg6
I0
sg7
I0
sg8
F1.6000000000000001
sg9
I0
sg10
I0
saa(lp362
V2015-12-29
p363
a(dp364
g5
I0
sg6
F-1.2
sg7
I0
sg8
F-1.2
sg9
I0
sg10
I0
saa(lp365
V2015-12-29
p366
a(dp367
g5
I0
sg6
I0
sg7
I0
sg8
I0
sg9
I0
sg10
I0
saa(lp368
V2015-12-29
p369
a(dp370
g5
F3.6000000000000005
sg6
I0
sg7
F3.6000000000000005
sg8
F3.6000000000000005
sg9
F3.6000000000000005
sg10
I0
saa(lp371
V2015-12-29
p372
a(dp373
g5
F3.2000000000000002
sg6
I0
sg7
I0
sg8
F6.4000000000000004
sg9
F0.80000000000000004
sg10
I0
saa(lp374
V2015-12-29
p375
a(dp376
g5
I0
sg6
F-0.39999999999999991
sg7
I0
sg8
F1.2000000000000002
sg9
F0.80000000000000004
sg10
I0
saa(lp377
V2015-12-29
p378
a(dp379
g5
I0
sg6
I0
sg7
I0
sg8
F0.80000000000000004
sg9
I0
sg10
I0
saa(lp380
V2015-12-29
p381
a(dp382
g5
I0
sg6
I0
sg7
I0
sg8
F1.6000000000000001
sg9
F1.6000000000000001
sg10
I0
saa(lp383
V2015-12-28
p384
a(dp385
g5
I0
sg6
I0
sg7
I0
sg8
F2.4000000000000004
sg9
F0.80000000000000004
sg10
I0
saa(lp386
V2015-12-28
p387
a(dp388
g5
I0
sg6
F0.80000000000000004
sg7
I0
sg8
F2.4000000000000004
sg9
F0.80000000000000004
sg10
I0
saa(lp389
V2015-12-28
p390
a(dp391
g5
I0
sg6
I0
sg7
I0
sg8
F1.6000000000000001
sg9
F0.80000000000000004
sg10
I0
saa(lp392
V2015-12-28
p393
a(dp394
g5
I0
sg6
F1.6000000000000001
sg7
I0
sg8
F1.6000000000000001
sg9
I0
sg10
I0
saa(lp395
V2015-12-28
p396
a(dp397
g5
I0
sg6
I0
sg7
I0
sg8
F2.4000000000000004
sg9
F2.4000000000000004
sg10
I0
saa(lp398
V2015-12-28
p399
a(dp400
g5
I0
sg6
I0
sg7
I0
sg8
F3.2000000000000002
sg9
F0.80000000000000004
sg10
I0
saa(lp401
V2015-12-28
p402
a(dp403
g5
I0
sg6
F0.80000000000000004
sg7
I0
sg8
F2.4000000000000004
sg9
I0
sg10
I0
saa(lp404
V2015-12-28
p405
a(dp406
g5
F3.2000000000000002
sg6
I0
sg7
I0
sg8
F3.2000000000000002
sg9
F3.2000000000000002
sg10
I0
saa(lp407
V2015-12-27
p408
a(dp409
g5
I0
sg6
I0
sg7
I0
sg8
I0
sg9
I0
sg10
I0
saa(lp410
V2015-12-27
p411
a(dp412
g5
I0
sg6
I0
sg7
I0
sg8
F-2.3999999999999999
sg9
I0
sg10
I0
saa(lp413
V2015-12-27
p414
a(dp415
g5
F0.80000000000000004
sg6
I0
sg7
I0
sg8
F0.80000000000000004
sg9
I0
sg10
I0
saa(lp416
V2015-12-27
p417
a(dp418
g5
I0
sg6
I0
sg7
F0.80000000000000004
sg8
F1.6000000000000001
sg9
F0.80000000000000004
sg10
I0
saa(lp419
V2015-12-27
p420
a(dp421
g5
I0
sg6
I0
sg7
I0
sg8
I0
sg9
I0
sg10
I0
saa(lp422
V2015-12-26
p423
a(dp424
g5
I0
sg6
I0
sg7
I0
sg8
F2.4000000000000004
sg9
F2.4000000000000004
sg10
I0
saa(lp425
V2015-12-26
p426
a(dp427
g5
I0
sg6
I0
sg7
I0
sg8
F-0.79999999999999982
sg9
I0
sg10
I0
saa(lp428
V2015-12-26
p429
a(dp430
g5
I0
sg6
F4
sg7
I0
sg8
F4
sg9
I0
sg10
I0
saa(lp431
V2015-12-26
p432
a(dp433
g5
I0
sg6
F2.4000000000000004
sg7
I0
sg8
F2.4000000000000004
sg9
F2.4000000000000004
sg10
I0
saa(lp434
V2015-12-26
p435
a(dp436
g5
I0
sg6
F0.80000000000000004
sg7
I0
sg8
F4.3999999999999995
sg9
I0
sg10
F2.7999999999999998
saa(lp437
V2015-12-26
p438
a(dp439
g5
I0
sg6
I0
sg7
I0
sg8
F1.6000000000000001
sg9
I0
sg10
I0
saa(lp440
V2015-12-26
p441
a(dp442
g5
I0
sg6
I0
sg7
I0
sg8
F-0.39999999999999991
sg9
F-0.39999999999999991
sg10
I0
saa(lp443
V2015-12-26
p444
a(dp445
g5
I0
sg6
I0
sg7
I0
sg8
I0
sg9
I0
sg10
I0
saa(lp446
V2015-12-26
p447
a(dp448
g5
I0
sg6
I0
sg7
I0
sg8
I0
sg9
I0
sg10
I0
saa(lp449
V2015-12-26
p450
a(dp451
g5
I0
sg6
I0
sg7
F0.40000000000000013
sg8
F1.2000000000000002
sg9
F0.40000000000000013
sg10
F0.40000000000000013
saa(lp452
V2015-12-25
p453
a(dp454
g5
I0
sg6
I0
sg7
F3.2000000000000002
sg8
F4
sg9
F3.2000000000000002
sg10
I0
saa(lp455
V2015-12-25
p456
a(dp457
g5
I0
sg6
I0
sg7
I0
sg8
F2
sg9
I0
sg10
I0
saa(lp458
V2015-12-25
p459
a(dp460
g5
I0
sg6
I0
sg7
I0
sg8
F0.40000000000000013
sg9
I0
sg10
F0.40000000000000013
saa(lp461
V2015-12-25
p462
a(dp463
g5
I0
sg6
I0
sg7
I0
sg8
F0.80000000000000004
sg9
I0
sg10
I0
saa(lp464
V2015-12-25
p465
a(dp466
g5
I0
sg6
F0.80000000000000004
sg7
I0
sg8
F1.6000000000000001
sg9
F0.80000000000000004
sg10
I0
saa(lp467
V2015-12-24
p468
a(dp469
g5
I0
sg6
I0
sg7
F0.80000000000000004
sg8
F1.6000000000000001
sg9
I0
sg10
I0
saa(lp470
V2015-12-24
p471
a(dp472
g5
I0
sg6
I0
sg7
I0
sg8
F0.80000000000000004
sg9
I0
sg10
I0
saa(lp473
V2015-12-24
p474
a(dp475
g5
I0
sg6
F1.6000000000000001
sg7
I0
sg8
F0.80000000000000027
sg9
I0
sg10
I0
saa(lp476
V2015-12-24
p477
a(dp478
g5
I0
sg6
I0
sg7
I0
sg8
I0
sg9
I0
sg10
I0
saa(lp479
V2015-12-24
p480
a(dp481
g5
I0
sg6
I0
sg7
F0.80000000000000004
sg8
F2.4000000000000004
sg9
I0
sg10
I0
saa(lp482
V2015-12-24
p483
a(dp484
g5
I0
sg6
I0
sg7
I0
sg8
F1.6000000000000001
sg9
F0.80000000000000004
sg10
I0
saa(lp485
V2015-12-24
p486
a(dp487
g5
I0
sg6
I0
sg7
I0
sg8
F-0.39999999999999991
sg9
F0.80000000000000004
sg10
I0
saa(lp488
V2015-12-24
p489
a(dp490
g5
I0
sg6
I0
sg7
I0
sg8
F0.80000000000000004
sg9
I0
sg10
I0
saa(lp491
V2015-12-24
p492
a(dp493
g5
I0
sg6
I0
sg7
I0
sg8
F1.6000000000000001
sg9
I0
sg10
I0
saa(lp494
V2015-12-24
p495
a(dp496
g5
I0
sg6
I0
sg7
I0
sg8
F0.40000000000000013
sg9
F-1.2
sg10
I0
saa(lp497
V2015-12-23
p498
a(dp499
g5
I0
sg6
I0
sg7
I0
sg8
F0.80000000000000004
sg9
I0
sg10
I0
saa(lp500
V2015-12-23
p501
a(dp502
g5
I0
sg6
I0
sg7
I0
sg8
F3.2000000000000002
sg9
I0
sg10
I0
saa(lp503
V2015-12-23
p504
a(dp505
g5
I0
sg6
F0.80000000000000004
sg7
I0
sg8
F2.4000000000000004
sg9
F0.80000000000000004
sg10
I0
saa(lp506
V2015-12-23
p507
a(dp508
g5
I0
sg6
I0
sg7
I0
sg8
I0
sg9
I0
sg10
I0
saa(lp509
V2015-12-23
p510
a(dp511
g5
I0
sg6
F0.80000000000000004
sg7
I0
sg8
F1.6000000000000001
sg9
I0
sg10
I0
saa(lp512
V2015-12-23
p513
a(dp514
g5
I0
sg6
I0
sg7
I0
sg8
F-0.39999999999999991
sg9
I0
sg10
I0
saa(lp515
V2015-12-23
p516
a(dp517
g5
I0
sg6
I0
sg7
I0
sg8
I0
sg9
I0
sg10
I0
saa(lp518
V2015-12-22
p519
a(dp520
g5
I0
sg6
F2.4000000000000004
sg7
F2.4000000000000004
sg8
F2.4000000000000004
sg9
F2.4000000000000004
sg10
I0
saa(lp521
V2015-12-22
p522
a(dp523
g5
I0
sg6
F0.80000000000000004
sg7
I0
sg8
F5.5999999999999996
sg9
F1.6000000000000001
sg10
I0
saa(lp524
V2015-12-22
p525
a(dp526
g5
F0.80000000000000004
sg6
I0
sg7
I0
sg8
F4
sg9
F1.6000000000000001
sg10
F0.80000000000000004
saa(lp527
V2015-12-22
p528
a(dp529
g5
I0
sg6
I0
sg7
I0
sg8
F4
sg9
I0
sg10
I0
saa(lp530
V2015-12-22
p531
a(dp532
g5
I0
sg6
I0
sg7
F1.6000000000000001
sg8
F1.6000000000000001
sg9
I0
sg10
I0
saa(lp533
V2015-12-21
p534
a(dp535
g5
I0
sg6
I0
sg7
I0
sg8
F1.6000000000000001
sg9
F0.80000000000000004
sg10
I0
saa(lp536
V2015-12-21
p537
a(dp538
g5
I0
sg6
I0
sg7
I0
sg8
F0.80000000000000027
sg9
I0
sg10
I0
saa(lp539
V2015-12-21
p540
a(dp541
g5
I0
sg6
I0
sg7
F1.6000000000000001
sg8
F1.2000000000000002
sg9
I0
sg10
F1.6000000000000001
saa(lp542
V2015-12-21
p543
a(dp544
g5
I0
sg6
F2.2204460492503131e-16
sg7
F2.2204460492503131e-16
sg8
F4.7999999999999998
sg9
F3.2000000000000002
sg10
F3.2000000000000002
saa(lp545
V2015-12-21
p546
a(dp547
g5
I0
sg6
I0
sg7
I0
sg8
F1.6000000000000001
sg9
I0
sg10
I0
saa(lp548
V2015-12-20
p549
a(dp550
g5
I0
sg6
I0
sg7
I0
sg8
F2.4000000000000004
sg9
F2.4000000000000004
sg10
I0
saa(lp551
V2015-12-20
p552
a(dp553
g5
I0
sg6
I0
sg7
I0
sg8
F3.6000000000000005
sg9
F4
sg10
I0
saa(lp554
V2015-12-20
p555
a(dp556
g5
I0
sg6
F0.80000000000000004
sg7
I0
sg8
F1.6000000000000001
sg9
I0
sg10
F0.80000000000000004
saa(lp557
V2015-12-20
p558
a(dp559
g5
I0
sg6
I0
sg7
I0
sg8
F-0.39999999999999991
sg9
F-0.39999999999999991
sg10
I0
saa(lp560
V2015-12-20
p561
a(dp562
g5
I0
sg6
I0
sg7
I0
sg8
F0.80000000000000004
sg9
I0
sg10
I0
saa(lp563
V2015-12-20
p564
a(dp565
g5
I0
sg6
F2.4000000000000004
sg7
I0
sg8
F3.2000000000000002
sg9
I0
sg10
I0
saa(lp566
V2015-12-19
p567
a(dp568
g5
F1.6000000000000001
sg6
I0
sg7
I0
sg8
F2.8000000000000003
sg9
F1.6000000000000001
sg10
I0
saa(lp569
V2015-12-19
p570
a(dp571
g5
I0
sg6
I0
sg7
I0
sg8
F-1.2
sg9
I0
sg10
I0
saa(lp572
V2015-12-19
p573
a(dp574
g5
I0
sg6
I0
sg7
I0
sg8
I0
sg9
I0
sg10
I0
saa(lp575
V2015-12-19
p576
a(dp577
g5
I0
sg6
I0
sg7
I0
sg8
I0
sg9
I0
sg10
I0
saa(lp578
V2015-12-18
p579
a(dp580
g5
I0
sg6
I0
sg7
F0.80000000000000004
sg8
F0.80000000000000004
sg9
I0
sg10
I0
saa(lp581
V2015-12-18
p582
a(dp583
g5
I0
sg6
I0
sg7
I0
sg8
F1.6000000000000001
sg9
I0
sg10
I0
saa(lp584
V2015-12-18
p585
a(dp586
g5
I0
sg6
I0
sg7
F0.80000000000000004
sg8
F1.2000000000000004
sg9
F0.80000000000000004
sg10
I0
saa(lp587
V2015-12-18
p588
a(dp589
g5
I0
sg6
I0
sg7
I0
sg8
F1.6000000000000001
sg9
I0
sg10
I0
saa(lp590
V2015-12-18
p591
a(dp592
g5
I0
sg6
F0.80000000000000004
sg7
I0
sg8
F5.5999999999999996
sg9
F1.6000000000000001
sg10
I0
saa(lp593
V2015-12-18
p594
a(dp595
g5
F3.2000000000000002
sg6
I0
sg7
I0
sg8
F3.2000000000000002
sg9
F3.2000000000000002
sg10
I0
saa(lp596
V2015-12-18
p597
a(dp598
g5
F1.6000000000000001
sg6
I0
sg7
I0
sg8
F1.6000000000000001
sg9
I0
sg10
I0
saa(lp599
V2015-12-18
p600
a(dp601
g5
I0
sg6
I0
sg7
I0
sg8
F4
sg9
I0
sg10
I0
saa(lp602
V2015-12-18
p603
a(dp604
g5
I0
sg6
F2.4000000000000004
sg7
I0
sg8
F3.5999999999999996
sg9
F0.80000000000000004
sg10
F1.6000000000000001
saa(lp605
V2015-12-18
p606
a(dp607
g5
I0
sg6
I0
sg7
I0
sg8
F3.5999999999999996
sg9
I0
sg10
I0
saa(lp608
V2015-12-18
p609
a(dp610
g5
I0
sg6
I0
sg7
I0
sg8
F2.2204460492503131e-16
sg9
F0.40000000000000013
sg10
I0
saa(lp611
V2015-12-18
p612
a(dp613
g5
F1.2000000000000002
sg6
I0
sg7
I0
sg8
F1.2000000000000002
sg9
I0
sg10
I0
saa(lp614
V2015-12-17
p615
a(dp616
g5
I0
sg6
I0
sg7
I0
sg8
I0
sg9
I0
sg10
I0
saa(lp617
V2015-12-17
p618
a(dp619
g5
I0
sg6
F-0.79999999999999982
sg7
I0
sg8
F-0.79999999999999982
sg9
I0
sg10
I0
saa(lp620
V2015-12-17
p621
a(dp622
g5
I0
sg6
F-0.39999999999999991
sg7
I0
sg8
F-0.39999999999999991
sg9
I0
sg10
I0
saa(lp623
V2015-12-17
p624
a(dp625
g5
I0
sg6
I0
sg7
I0
sg8
F1.6000000000000001
sg9
I0
sg10
I0
saa(lp626
V2015-12-16
p627
a(dp628
g5
F0.80000000000000004
sg6
I0
sg7
I0
sg8
F0.80000000000000004
sg9
I0
sg10
I0
saa(lp629
V2015-12-16
p630
a(dp631
g5
I0
sg6
F1.6000000000000001
sg7
I0
sg8
F1.6000000000000001
sg9
F1.6000000000000001
sg10
I0
saa(lp632
V2015-12-16
p633
a(dp634
g5
I0
sg6
I0
sg7
I0
sg8
F1.6000000000000001
sg9
I0
sg10
F1.6000000000000001
saa(lp635
V2015-12-16
p636
a(dp637
g5
F3.2000000000000002
sg6
F3.2000000000000002
sg7
F3.2000000000000002
sg8
F3.2000000000000002
sg9
F3.2000000000000002
sg10
I0
saa(lp638
V2015-12-16
p639
a(dp640
g5
I0
sg6
I0
sg7
I0
sg8
F2.3999999999999995
sg9
I0
sg10
I0
saa(lp641
V2015-12-16
p642
a(dp643
g5
I0
sg6
I0
sg7
I0
sg8
F0.80000000000000004
sg9
I0
sg10
I0
saa(lp644
V2015-12-16
p645
a(dp646
g5
I0
sg6
I0
sg7
I0
sg8
F-0.79999999999999982
sg9
I0
sg10
I0
saa(lp647
V2015-12-16
p648
a(dp649
g5
I0
sg6
F0.80000000000000004
sg7
F0.80000000000000004
sg8
F0.40000000000000013
sg9
F0.80000000000000004
sg10
I0
saa(lp650
V2015-12-15
p651
a(dp652
g5
I0
sg6
I0
sg7
F-0.39999999999999991
sg8
F-0.79999999999999982
sg9
I0
sg10
I0
saa(lp653
V2015-12-15
p654
a(dp655
g5
I0
sg6
F1.6000000000000001
sg7
I0
sg8
F1.6000000000000001
sg9
F1.6000000000000001
sg10
I0
saa(lp656
V2015-12-15
p657
a(dp658
g5
I0
sg6
F0.80000000000000004
sg7
I0
sg8
F4.7999999999999998
sg9
I0
sg10
I0
saa(lp659
V2015-12-15
p660
a(dp661
g5
F-0.39999999999999991
sg6
F-0.39999999999999991
sg7
I0
sg8
F-0.39999999999999991
sg9
I0
sg10
F-0.39999999999999991
saa(lp662
V2015-12-15
p663
a(dp664
g5
I0
sg6
F3.5999999999999996
sg7
I0
sg8
F3.5999999999999996
sg9
F3.5999999999999996
sg10
I0
saa(lp665
V2015-12-14
p666
a(dp667
g5
I0
sg6
I0
sg7
I0
sg8
F0.80000000000000004
sg9
I0
sg10
I0
saa(lp668
V2015-12-14
p669
a(dp670
g5
I0
sg6
F1.6000000000000001
sg7
I0
sg8
F1.6000000000000001
sg9
I0
sg10
I0
saa(lp671
V2015-12-14
p672
a(dp673
g5
I0
sg6
I0
sg7
I0
sg8
F0.40000000000000013
sg9
I0
sg10
I0
saa(lp674
V2015-12-13
p675
a(dp676
g5
I0
sg6
I0
sg7
I0
sg8
F0.80000000000000004
sg9
I0
sg10
I0
saa(lp677
V2015-12-13
p678
a(dp679
g5
I0
sg6
I0
sg7
F0.80000000000000004
sg8
F-0.39999999999999991
sg9
I0
sg10
I0
saa(lp680
V2015-12-12
p681
a(dp682
g5
I0
sg6
F2.7999999999999998
sg7
F2.7999999999999998
sg8
F2.7999999999999998
sg9
I0
sg10
I0
saa(lp683
V2015-12-11
p684
a(dp685
g5
I0
sg6
I0
sg7
I0
sg8
F1.6000000000000001
sg9
I0
sg10
I0
saa(lp686
V2015-12-11
p687
a(dp688
g5
I0
sg6
I0
sg7
I0
sg8
F0.40000000000000013
sg9
F0.40000000000000013
sg10
I0
saa(lp689
V2015-12-11
p690
a(dp691
g5
I0
sg6
F1.6000000000000001
sg7
I0
sg8
F4
sg9
F1.6000000000000001
sg10
I0
saa(lp692
V2015-12-11
p693
a(dp694
g5
I0
sg6
I0
sg7
I0
sg8
F1.6000000000000001
sg9
I0
sg10
I0
saa(lp695
V2015-12-11
p696
a(dp697
g5
I0
sg6
I0
sg7
I0
sg8
F0.80000000000000004
sg9
F0.80000000000000004
sg10
I0
saa(lp698
V2015-12-10
p699
a(dp700
g5
I0
sg6
F2.4000000000000004
sg7
I0
sg8
F3.2000000000000002
sg9
F2.4000000000000004
sg10
I0
saa(lp701
V2015-12-10
p702
a(dp703
g5
I0
sg6
I0
sg7
F0.80000000000000004
sg8
F1.6000000000000001
sg9
I0
sg10
I0
saa(lp704
V2015-12-10
p705
a(dp706
g5
I0
sg6
I0
sg7
I0
sg8
F1.2000000000000002
sg9
I0
sg10
I0
saa(lp707
V2015-12-10
p708
a(dp709
g5
I0
sg6
F0.80000000000000004
sg7
F0.80000000000000004
sg8
F4.4000000000000004
sg9
F0.80000000000000004
sg10
I0
saa(lp710
V2015-12-10
p711
a(dp712
g5
I0
sg6
I0
sg7
I0
sg8
F1.6000000000000001
sg9
I0
sg10
I0
saa(lp713
V2015-12-09
p714
a(dp715
g5
I0
sg6
I0
sg7
I0
sg8
I0
sg9
I0
sg10
I0
saa(lp716
V2015-12-09
p717
a(dp718
g5
I0
sg6
I0
sg7
I0
sg8
F1.6000000000000001
sg9
F1.6000000000000001
sg10
I0
saa(lp719
V2015-12-09
p720
a(dp721
g5
I0
sg6
F0.80000000000000004
sg7
I0
sg8
F0.80000000000000004
sg9
I0
sg10
I0
saa(lp722
V2015-12-09
p723
a(dp724
g5
I0
sg6
I0
sg7
I0
sg8
F2.2204460492503131e-16
sg9
I0
sg10
I0
saa(lp725
V2015-12-09
p726
a(dp727
g5
I0
sg6
I0
sg7
I0
sg8
F-0.39999999999999991
sg9
I0
sg10
F-1.2
saa(lp728
V2015-12-09
p729
a(dp730
g5
I0
sg6
I0
sg7
I0
sg8
I0
sg9
I0
sg10
I0
saa(lp731
V2015-12-09
p732
a(dp733
g5
I0
sg6
I0
sg7
I0
sg8
F2.8000000000000003
sg9
I0
sg10
I0
saa(lp734
V2015-12-08
p735
a(dp736
g5
I0
sg6
F0.80000000000000004
sg7
I0
sg8
F9.6000000000000014
sg9
F0.80000000000000004
sg10
I0
saa(lp737
V2015-12-08
p738
a(dp739
g5
I0
sg6
I0
sg7
I0
sg8
F1.6000000000000001
sg9
F0.80000000000000004
sg10
I0
saa(lp740
V2015-12-08
p741
a(dp742
g5
I0
sg6
I0
sg7
I0
sg8
I0
sg9
I0
sg10
I0
saa(lp743
V2015-12-08
p744
a(dp745
g5
I0
sg6
F-0.39999999999999991
sg7
F2.8000000000000007
sg8
F7.9999999999999973
sg9
F0.80000000000000004
sg10
F-1.2
saa(lp746
V2015-12-08
p747
a(dp748
g5
I0
sg6
I0
sg7
I0
sg8
F1.6000000000000001
sg9
I0
sg10
I0
saa(lp749
V2015-12-08
p750
a(dp751
g5
I0
sg6
I0
sg7
I0
sg8
I0
sg9
I0
sg10
I0
saa(lp752
V2015-12-08
p753
a(dp754
g5
I0
sg6
F0.80000000000000004
sg7
I0
sg8
F4
sg9
F0.80000000000000004
sg10
I0
saa(lp755
V2015-12-08
p756
a(dp757
g5
I0
sg6
I0
sg7
I0
sg8
F1.6000000000000001
sg9
I0
sg10
F1.6000000000000001
saa(lp758
V2015-12-08
p759
a(dp760
g5
F1.6000000000000001
sg6
I0
sg7
I0
sg8
F1.6000000000000001
sg9
I0
sg10
I0
saa(lp761
V2015-12-08
p762
a(dp763
g5
I0
sg6
I0
sg7
I0
sg8
I0
sg9
I0
sg10
I0
saa(lp764
V2015-12-08
p765
a(dp766
g5
I0
sg6
F0.80000000000000004
sg7
I0
sg8
F3.2000000000000002
sg9
I0
sg10
I0
saa(lp767
V2015-12-07
p768
a(dp769
g5
I0
sg6
I0
sg7
I0
sg8
I0
sg9
I0
sg10
I0
saa(lp770
V2015-12-07
p771
a(dp772
g5
I0
sg6
I0
sg7
I0
sg8
F1.6000000000000001
sg9
I0
sg10
I0
saa(lp773
V2015-12-07
p774
a(dp775
g5
I0
sg6
F1.6000000000000001
sg7
F1.6000000000000001
sg8
F1.6000000000000001
sg9
I0
sg10
I0
saa(lp776
V2015-12-07
p777
a(dp778
g5
I0
sg6
I0
sg7
I0
sg8
F-1.2
sg9
I0
sg10
I0
saa(lp779
V2015-12-07
p780
a(dp781
g5
I0
sg6
I0
sg7
I0
sg8
F2.4000000000000004
sg9
F0.80000000000000004
sg10
I0
saa(lp782
V2015-12-06
p783
a(dp784
g5
I0
sg6
I0
sg7
I0
sg8
F0.80000000000000004
sg9
I0
sg10
I0
saa(lp785
V2015-12-06
p786
a(dp787
g5
I0
sg6
I0
sg7
I0
sg8
F0.80000000000000004
sg9
I0
sg10
I0
saa(lp788
V2015-12-06
p789
a(dp790
g5
I0
sg6
I0
sg7
I0
sg8
I0
sg9
I0
sg10
I0
saa(lp791
V2015-12-06
p792
a(dp793
g5
I0
sg6
I0
sg7
I0
sg8
F3.2000000000000002
sg9
F0.80000000000000004
sg10
I0
saa(lp794
V2015-12-06
p795
a(dp796
g5
I0
sg6
I0
sg7
I0
sg8
F0.80000000000000004
sg9
F0.80000000000000004
sg10
I0
saa(lp797
V2015-12-05
p798
a(dp799
g5
I0
sg6
F0.80000000000000004
sg7
I0
sg8
F3.2000000000000002
sg9
I0
sg10
I0
saa(lp800
V2015-12-05
p801
a(dp802
g5
I0
sg6
I0
sg7
I0
sg8
F0.80000000000000004
sg9
I0
sg10
I0
saa(lp803
V2015-12-05
p804
a(dp805
g5
I0
sg6
I0
sg7
I0
sg8
F-0.39999999999999991
sg9
I0
sg10
I0
saa(lp806
V2015-12-05
p807
a(dp808
g5
I0
sg6
I0
sg7
I0
sg8
F1.6000000000000001
sg9
I0
sg10
I0
saa(lp809
V2015-12-05
p810
a(dp811
g5
I0
sg6
I0
sg7
I0
sg8
F2.4000000000000004
sg9
F0.80000000000000004
sg10
F0.80000000000000004
saa(lp812
V2015-12-05
p813
a(dp814
g5
F0.80000000000000004
sg6
I0
sg7
I0
sg8
F6
sg9
I0
sg10
I0
saa(lp815
V2015-12-05
p816
a(dp817
g5
I0
sg6
I0
sg7
I0
sg8
F1.6000000000000001
sg9
I0
sg10
F1.6000000000000001
saa(lp818
V2015-12-05
p819
a(dp820
g5
I0
sg6
I0
sg7
F-1.2
sg8
F-1.2
sg9
I0
sg10
I0
saa(lp821
V2015-12-05
p822
a(dp823
g5
I0
sg6
I0
sg7
F0.80000000000000004
sg8
F2.4000000000000004
sg9
F0.80000000000000004
sg10
I0
saa(lp824
V2015-12-05
p825
a(dp826
g5
I0
sg6
I0
sg7
I0
sg8
F4
sg9
I0
sg10
I0
saa(lp827
V2015-12-04
p828
a(dp829
g5
I0
sg6
I0
sg7
I0
sg8
I0
sg9
I0
sg10
I0
saa(lp830
V2015-12-04
p831
a(dp832
g5
I0
sg6
I0
sg7
I0
sg8
F-0.39999999999999991
sg9
I0
sg10
I0
saa(lp833
V2015-12-04
p834
a(dp835
g5
I0
sg6
I0
sg7
I0
sg8
F2.7999999999999998
sg9
F2.4000000000000004
sg10
F0.80000000000000004
saa(lp836
V2015-12-04
p837
a(dp838
g5
I0
sg6
I0
sg7
I0
sg8
F0.80000000000000004
sg9
I0
sg10
I0
saa(lp839
V2015-12-04
p840
a(dp841
g5
F0.80000000000000004
sg6
I0
sg7
I0
sg8
F1.6000000000000001
sg9
F0.80000000000000004
sg10
I0
saa(lp842
V2015-12-04
p843
a(dp844
g5
F0.80000000000000004
sg6
F5.5999999999999996
sg7
I0
sg8
F6.7999999999999998
sg9
F5.5999999999999996
sg10
I0
saa(lp845
V2015-12-04
p846
a(dp847
g5
F0.80000000000000004
sg6
I0
sg7
F0.80000000000000004
sg8
F18.000000000000004
sg9
F1.6000000000000001
sg10
I0
saa(lp848
V2015-12-03
p849
a(dp850
g5
I0
sg6
I0
sg7
I0
sg8
F0.4000000000000008
sg9
I0
sg10
F-0.39999999999999991
saa(lp851
V2015-12-03
p852
a(dp853
g5
I0
sg6
F2.4000000000000004
sg7
I0
sg8
F3.2000000000000002
sg9
F2.4000000000000004
sg10
I0
saa(lp854
V2015-12-03
p855
a(dp856
g5
I0
sg6
F2.4000000000000004
sg7
I0
sg8
F2.4000000000000004
sg9
F2.4000000000000004
sg10
I0
saa(lp857
V2015-12-03
p858
a(dp859
g5
I0
sg6
I0
sg7
I0
sg8
I0
sg9
I0
sg10
I0
saa(lp860
V2015-12-03
p861
a(dp862
g5
F0.80000000000000004
sg6
I0
sg7
I0
sg8
F1.6000000000000001
sg9
I0
sg10
I0
saa(lp863
V2015-12-02
p864
a(dp865
g5
I0
sg6
I0
sg7
I0
sg8
I0
sg9
I0
sg10
I0
saa(lp866
V2015-12-02
p867
a(dp868
g5
I0
sg6
I0
sg7
I0
sg8
F0.40000000000000013
sg9
I0
sg10
I0
saa(lp869
V2015-12-02
p870
a(dp871
g5
I0
sg6
I0
sg7
I0
sg8
F0.40000000000000013
sg9
I0
sg10
I0
saa(lp872
V2015-12-02
p873
a(dp874
g5
I0
sg6
I0
sg7
I0
sg8
F1.6000000000000001
sg9
I0
sg10
I0
saa(lp875
V2015-12-02
p876
a(dp877
g5
I0
sg6
I0
sg7
F1.6000000000000001
sg8
F1.6000000000000001
sg9
I0
sg10
I0
saa(lp878
V2015-12-02
p879
a(dp880
g5
I0
sg6
F1.6000000000000001
sg7
I0
sg8
F1.6000000000000001
sg9
I0
sg10
I0
saa(lp881
V2015-12-02
p882
a(dp883
g5
F0.80000000000000004
sg6
I0
sg7
I0
sg8
F1.6000000000000001
sg9
I0
sg10
I0
saa(lp884
V2015-12-02
p885
a(dp886
g5
I0
sg6
I0
sg7
I0
sg8
F-0.39999999999999991
sg9
I0
sg10
I0
saa(lp887
V2015-12-02
p888
a(dp889
g5
F2.4000000000000004
sg6
F2.4000000000000004
sg7
I0
sg8
F2.4000000000000004
sg9
I0
sg10
I0
saa(lp890
V2015-12-02
p891
a(dp892
g5
I0
sg6
F0.80000000000000004
sg7
I0
sg8
F0.80000000000000004
sg9
I0
sg10
I0
saa(lp893
V2015-12-01
p894
a(dp895
g5
I0
sg6
I0
sg7
I0
sg8
F1.6000000000000001
sg9
F1.6000000000000001
sg10
I0
saa(lp896
V2015-12-01
p897
a(dp898
g5
I0
sg6
I0
sg7
I0
sg8
F2.4000000000000004
sg9
I0
sg10
I0
saa(lp899
V2015-12-01
p900
a(dp901
g5
I0
sg6
F4
sg7
I0
sg8
F4
sg9
F4
sg10
I0
saa(lp902
V2015-12-01
p903
a(dp904
g5
I0
sg6
I0
sg7
I0
sg8
F4
sg9
F1.2000000000000002
sg10
I0
saa(lp905
V2015-12-01
p906
a(dp907
g5
I0
sg6
F0.80000000000000004
sg7
I0
sg8
F1.6000000000000001
sg9
F0.80000000000000004
sg10
I0
saa(lp908
V2015-11-30
p909
a(dp910
g5
I0
sg6
I0
sg7
I0
sg8
F4
sg9
F4
sg10
I0
saa(lp911
V2015-11-30
p912
a(dp913
g5
I0
sg6
I0
sg7
I0
sg8
F0.80000000000000004
sg9
I0
sg10
I0
saa(lp914
V2015-11-30
p915
a(dp916
g5
I0
sg6
I0
sg7
I0
sg8
F4.4408920985006262e-16
sg9
F0.80000000000000004
sg10
I0
saa(lp917
V2015-11-30
p918
a(dp919
g5
I0
sg6
I0
sg7
I0
sg8
F2.4000000000000004
sg9
F2.4000000000000004
sg10
I0
saa(lp920
V2015-11-30
p921
a(dp922
g5
I0
sg6
I0
sg7
I0
sg8
F1.6000000000000001
sg9
F1.6000000000000001
sg10
I0
saa(lp923
V2015-11-30
p924
a(dp925
g5
I0
sg6
F0.80000000000000004
sg7
I0
sg8
F2.4000000000000004
sg9
F0.80000000000000004
sg10
I0
saa(lp926
V2015-11-30
p927
a(dp928
g5
I0
sg6
I0
sg7
I0
sg8
F0.80000000000000004
sg9
I0
sg10
I0
saa(lp929
V2015-11-30
p930
a(dp931
g5
I0
sg6
I0
sg7
I0
sg8
F1.6000000000000001
sg9
F1.6000000000000001
sg10
I0
saa(lp932
V2015-11-30
p933
a(dp934
g5
I0
sg6
F-0.39999999999999991
sg7
I0
sg8
F-1.5999999999999999
sg9
I0
sg10
I0
saa(lp935
V2015-11-29
p936
a(dp937
g5
I0
sg6
I0
sg7
I0
sg8
F4
sg9
F3.2000000000000002
sg10
F3.2000000000000002
saa(lp938
V2015-11-29
p939
a(dp940
g5
I0
sg6
F1.6000000000000001
sg7
F1.6000000000000001
sg8
F1.6000000000000001
sg9
I0
sg10
I0
saa(lp941
V2015-11-29
p942
a(dp943
g5
I0
sg6
I0
sg7
I0
sg8
F0.80000000000000004
sg9
I0
sg10
I0
saa(lp944
V2015-11-29
p945
a(dp946
g5
F0.80000000000000004
sg6
I0
sg7
F0.80000000000000004
sg8
F1.6000000000000001
sg9
I0
sg10
I0
saa(lp947
V2015-11-28
p948
a(dp949
g5
F1.2000000000000004
sg6
I0
sg7
I0
sg8
F2.0000000000000004
sg9
I0
sg10
I0
saa(lp950
V2015-11-28
p951
a(dp952
g5
I0
sg6
I0
sg7
I0
sg8
F0.40000000000000013
sg9
F-0.39999999999999991
sg10
I0
saa(lp953
V2015-11-28
p954
a(dp955
g5
I0
sg6
I0
sg7
I0
sg8
F4
sg9
F2.4000000000000004
sg10
I0
saa(lp956
V2015-11-28
p957
a(dp958
g5
I0
sg6
I0
sg7
I0
sg8
F-1.2
sg9
I0
sg10
I0
saa(lp959
V2015-11-28
p960
a(dp961
g5
I0
sg6
I0
sg7
I0
sg8
F1.6000000000000001
sg9
I0
sg10
I0
saa(lp962
V2015-11-28
p963
a(dp964
g5
I0
sg6
I0
sg7
I0
sg8
F4
sg9
I0
sg10
I0
saa(lp965
V2015-11-28
p966
a(dp967
g5
I0
sg6
I0
sg7
I0
sg8
F4
sg9
I0
sg10
F2.4000000000000004
saa(lp968
V2015-11-28
p969
a(dp970
g5
I0
sg6
I0
sg7
I0
sg8
F4.4000000000000004
sg9
F3.2000000000000002
sg10
I0
saa(lp971
V2015-11-28
p972
a(dp973
g5
I0
sg6
I0
sg7
I0
sg8
I0
sg9
I0
sg10
I0
saa(lp974
V2015-11-27
p975
a(dp976
g5
I0
sg6
I0
sg7
I0
sg8
F2.4000000000000008
sg9
F0.80000000000000004
sg10
I0
saa(lp977
V2015-11-27
p978
a(dp979
g5
I0
sg6
I0
sg7
I0
sg8
F0.80000000000000004
sg9
I0
sg10
I0
saa(lp980
V2015-11-27
p981
a(dp982
g5
I0
sg6
I0
sg7
I0
sg8
F0.80000000000000004
sg9
I0
sg10
I0
saa(lp983
V2015-11-27
p984
a(dp985
g5
I0
sg6
I0
sg7
I0
sg8
F2.4000000000000004
sg9
I0
sg10
I0
saa(lp986
V2015-11-26
p987
a(dp988
g5
I0
sg6
F1.6000000000000001
sg7
I0
sg8
F2.4000000000000004
sg9
F1.6000000000000001
sg10
I0
saa(lp989
V2015-11-26
p990
a(dp991
g5
I0
sg6
I0
sg7
I0
sg8
F0.40000000000000013
sg9
I0
sg10
I0
saa(lp992
V2015-11-26
p993
a(dp994
g5
I0
sg6
I0
sg7
I0
sg8
F1.6000000000000001
sg9
I0
sg10
I0
saa(lp995
V2015-11-26
p996
a(dp997
g5
I0
sg6
F0.80000000000000004
sg7
I0
sg8
F3.2000000000000002
sg9
I0
sg10
I0
saa(lp998
V2015-11-26
p999
a(dp1000
g5
I0
sg6
I0
sg7
I0
sg8
F-1.5999999999999999
sg9
I0
sg10
I0
saa(lp1001
V2015-11-26
p1002
a(dp1003
g5
I0
sg6
F2.4000000000000004
sg7
I0
sg8
F2.4000000000000004
sg9
F2.4000000000000004
sg10
I0
saa(lp1004
V2015-11-26
p1005
a(dp1006
g5
I0
sg6
I0
sg7
I0
sg8
F0.80000000000000004
sg9
I0
sg10
I0
saa(lp1007
V2015-11-26
p1008
a(dp1009
g5
I0
sg6
I0
sg7
I0
sg8
F0.80000000000000004
sg9
I0
sg10
I0
saa(lp1010
V2015-11-26
p1011
a(dp1012
g5
I0
sg6
I0
sg7
F0.80000000000000004
sg8
F1.6000000000000001
sg9
I0
sg10
I0
saa(lp1013
V2015-11-25
p1014
a(dp1015
g5
I0
sg6
I0
sg7
I0
sg8
F-2.3999999999999999
sg9
F-2.3999999999999999
sg10
I0
saa(lp1016
V2015-11-25
p1017
a(dp1018
g5
I0
sg6
F0.80000000000000004
sg7
F0.80000000000000004
sg8
F1.6000000000000001
sg9
I0
sg10
I0
saa(lp1019
V2015-11-25
p1020
a(dp1021
g5
I0
sg6
F1.6000000000000001
sg7
F1.6000000000000001
sg8
F1.6000000000000001
sg9
I0
sg10
F1.6000000000000001
saa(lp1022
V2015-11-25
p1023
a(dp1024
g5
I0
sg6
F1.6000000000000001
sg7
I0
sg8
F1.6000000000000001
sg9
I0
sg10
I0
saa(lp1025
V2015-11-25
p1026
a(dp1027
g5
I0
sg6
F2.4000000000000004
sg7
F2.4000000000000004
sg8
F2.4000000000000004
sg9
F2.4000000000000004
sg10
I0
saa(lp1028
V2015-11-25
p1029
a(dp1030
g5
I0
sg6
F0.80000000000000004
sg7
I0
sg8
F5.1999999999999993
sg9
F0.80000000000000004
sg10
F0.80000000000000004
saa(lp1031
V2015-11-25
p1032
a(dp1033
g5
I0
sg6
F0.80000000000000004
sg7
I0
sg8
F1.6000000000000001
sg9
I0
sg10
I0
saa(lp1034
V2015-11-25
p1035
a(dp1036
g5
I0
sg6
I0
sg7
I0
sg8
F0.80000000000000004
sg9
I0
sg10
I0
saa(lp1037
V2015-11-25
p1038
a(dp1039
g5
I0
sg6
I0
sg7
I0
sg8
F1.6000000000000001
sg9
I0
sg10
I0
saa(lp1040
V2015-11-25
p1041
a(dp1042
g5
I0
sg6
I0
sg7
F3.2000000000000002
sg8
F4
sg9
F3.2000000000000002
sg10
I0
saa(lp1043
V2015-11-24
p1044
a(dp1045
g5
I0
sg6
F0.80000000000000004
sg7
I0
sg8
F0.80000000000000004
sg9
F0.80000000000000004
sg10
I0
saa(lp1046
V2015-11-24
p1047
a(dp1048
g5
I0
sg6
I0
sg7
F1.6000000000000001
sg8
F1.6000000000000001
sg9
I0
sg10
I0
saa(lp1049
V2015-11-24
p1050
a(dp1051
g5
F0.80000000000000004
sg6
I0
sg7
I0
sg8
F0.80000000000000004
sg9
I0
sg10
I0
saa(lp1052
V2015-11-24
p1053
a(dp1054
g5
I0
sg6
I0
sg7
I0
sg8
F3.2000000000000002
sg9
I0
sg10
F0.80000000000000004
saa(lp1055
V2015-11-24
p1056
a(dp1057
g5
I0
sg6
F1.6000000000000001
sg7
I0
sg8
F4.8000000000000007
sg9
I0
sg10
F1.6000000000000001
saa(lp1058
V2015-11-24
p1059
a(dp1060
g5
I0
sg6
F2.4000000000000004
sg7
F2.4000000000000004
sg8
F4
sg9
F1.6000000000000001
sg10
F2.4000000000000004
saa(lp1061
V2015-11-24
p1062
a(dp1063
g5
I0
sg6
F1.2000000000000004
sg7
I0
sg8
F1.2000000000000004
sg9
F1.2000000000000004
sg10
I0
saa(lp1064
V2015-11-24
p1065
a(dp1066
g5
I0
sg6
I0
sg7
I0
sg8
F1.6000000000000001
sg9
F1.6000000000000001
sg10
F1.6000000000000001
saa(lp1067
V2015-11-24
p1068
a(dp1069
g5
I0
sg6
F1.6000000000000001
sg7
I0
sg8
F2.4000000000000004
sg9
I0
sg10
F0.80000000000000004
saa(lp1070
V2015-11-24
p1071
a(dp1072
g5
I0
sg6
F0.80000000000000004
sg7
I0
sg8
F2.4000000000000004
sg9
I0
sg10
I0
saa(lp1073
V2015-11-24
p1074
a(dp1075
g5
I0
sg6
F0.80000000000000004
sg7
F0.80000000000000004
sg8
F2.4000000000000004
sg9
I0
sg10
I0
saa(lp1076
V2015-11-24
p1077
a(dp1078
g5
I0
sg6
F4
sg7
I0
sg8
F4
sg9
F4
sg10
I0
saa(lp1079
V2015-11-24
p1080
a(dp1081
g5
I0
sg6
F0.80000000000000004
sg7
I0
sg8
F3.2000000000000002
sg9
F0.80000000000000004
sg10
I0
saa(lp1082
V2015-11-24
p1083
a(dp1084
g5
I0
sg6
I0
sg7
I0
sg8
F2.4000000000000004
sg9
F0.80000000000000004
sg10
I0
saa(lp1085
V2015-11-23
p1086
a(dp1087
g5
I0
sg6
F3.2000000000000002
sg7
F2.8000000000000003
sg8
F2.8000000000000003
sg9
I0
sg10
F3.2000000000000002
saa(lp1088
V2015-11-23
p1089
a(dp1090
g5
I0
sg6
I0
sg7
I0
sg8
F0.80000000000000004
sg9
I0
sg10
I0
saa(lp1091
V2015-11-23
p1092
a(dp1093
g5
I0
sg6
I0
sg7
F0.80000000000000004
sg8
F0.80000000000000004
sg9
I0
sg10
F0.80000000000000004
saa(lp1094
V2015-11-23
p1095
a(dp1096
g5
I0
sg6
I0
sg7
I0
sg8
F2.4000000000000004
sg9
F0.80000000000000004
sg10
I0
saa(lp1097
V2015-11-23
p1098
a(dp1099
g5
I0
sg6
I0
sg7
I0
sg8
F1.6000000000000001
sg9
I0
sg10
F0.80000000000000004
saa(lp1100
V2015-11-23
p1101
a(dp1102
g5
I0
sg6
I0
sg7
I0
sg8
F0.80000000000000004
sg9
I0
sg10
I0
saa(lp1103
V2015-11-23
p1104
a(dp1105
g5
I0
sg6
F-0.39999999999999991
sg7
F-0.39999999999999991
sg8
F-0.39999999999999991
sg9
F-0.39999999999999991
sg10
I0
saa(lp1106
V2015-11-23
p1107
a(dp1108
g5
I0
sg6
I0
sg7
I0
sg8
F1.6000000000000001
sg9
F0.80000000000000004
sg10
I0
saa(lp1109
V2015-11-23
p1110
a(dp1111
g5
I0
sg6
I0
sg7
F2.4000000000000004
sg8
F2.4000000000000004
sg9
F2.4000000000000004
sg10
I0
saa(lp1112
V2015-11-23
p1113
a(dp1114
g5
I0
sg6
I0
sg7
I0
sg8
F1.6000000000000001
sg9
I0
sg10
I0
saa(lp1115
V2015-11-23
p1116
a(dp1117
g5
I0
sg6
F3.2000000000000002
sg7
F3.2000000000000002
sg8
F4.8000000000000007
sg9
F3.2000000000000002
sg10
I0
saa(lp1118
V2015-11-23
p1119
a(dp1120
g5
I0
sg6
I0
sg7
I0
sg8
F1.6000000000000001
sg9
I0
sg10
I0
saa(lp1121
V2015-11-23
p1122
a(dp1123
g5
I0
sg6
I0
sg7
I0
sg8
I0
sg9
I0
sg10
I0
saa(lp1124
V2015-11-22
p1125
a(dp1126
g5
F0.80000000000000004
sg6
I0
sg7
I0
sg8
F4.8000000000000007
sg9
F0.80000000000000004
sg10
I0
saa(lp1127
V2015-11-22
p1128
a(dp1129
g5
I0
sg6
I0
sg7
F-0.39999999999999991
sg8
F2.7999999999999998
sg9
I0
sg10
F0.80000000000000004
saa(lp1130
V2015-11-22
p1131
a(dp1132
g5
I0
sg6
F-0.79999999999999982
sg7
I0
sg8
F-0.79999999999999982
sg9
I0
sg10
F-0.79999999999999982
saa(lp1133
V2015-11-22
p1134
a(dp1135
g5
I0
sg6
I0
sg7
I0
sg8
F0.80000000000000004
sg9
I0
sg10
I0
saa(lp1136
V2015-11-22
p1137
a(dp1138
g5
I0
sg6
F-0.39999999999999991
sg7
F-0.39999999999999991
sg8
F2.7999999999999998
sg9
F0.40000000000000013
sg10
F0.80000000000000004
saa(lp1139
V2015-11-22
p1140
a(dp1141
g5
I0
sg6
I0
sg7
I0
sg8
F1.6000000000000001
sg9
I0
sg10
I0
saa(lp1142
V2015-11-22
p1143
a(dp1144
g5
I0
sg6
I0
sg7
I0
sg8
F-1.1999999999999997
sg9
I0
sg10
I0
saa(lp1145
V2015-11-22
p1146
a(dp1147
g5
I0
sg6
I0
sg7
I0
sg8
F3.2000000000000002
sg9
F3.2000000000000002
sg10
I0
saa(lp1148
V2015-11-22
p1149
a(dp1150
g5
I0
sg6
I0
sg7
I0
sg8
F1.6000000000000001
sg9
I0
sg10
I0
saa(lp1151
V2015-11-22
p1152
a(dp1153
g5
I0
sg6
I0
sg7
I0
sg8
F0.80000000000000004
sg9
I0
sg10
I0
saa(lp1154
V2015-11-22
p1155
a(dp1156
g5
F0.80000000000000004
sg6
I0
sg7
I0
sg8
F0.80000000000000004
sg9
I0
sg10
I0
saa(lp1157
V2015-11-21
p1158
a(dp1159
g5
I0
sg6
I0
sg7
I0
sg8
F0.80000000000000004
sg9
I0
sg10
I0
saa(lp1160
V2015-11-21
p1161
a(dp1162
g5
I0
sg6
I0
sg7
F0.80000000000000004
sg8
F1.2000000000000002
sg9
F0.80000000000000004
sg10
I0
saa(lp1163
V2015-11-21
p1164
a(dp1165
g5
I0
sg6
F1.6000000000000001
sg7
I0
sg8
F2.4000000000000004
sg9
I0
sg10
F1.6000000000000001
saa(lp1166
V2015-11-21
p1167
a(dp1168
g5
I0
sg6
I0
sg7
I0
sg8
F2.4000000000000004
sg9
I0
sg10
I0
saa(lp1169
V2015-11-21
p1170
a(dp1171
g5
I0
sg6
I0
sg7
I0
sg8
F0.40000000000000013
sg9
I0
sg10
I0
saa(lp1172
V2015-11-21
p1173
a(dp1174
g5
F-0.39999999999999991
sg6
I0
sg7
I0
sg8
F0.80000000000000071
sg9
F0.80000000000000004
sg10
I0
saa(lp1175
V2015-11-21
p1176
a(dp1177
g5
I0
sg6
I0
sg7
I0
sg8
F1.6000000000000001
sg9
I0
sg10
I0
saa(lp1178
V2015-11-21
p1179
a(dp1180
g5
I0
sg6
I0
sg7
I0
sg8
F0.40000000000000013
sg9
I0
sg10
I0
saa(lp1181
V2015-11-21
p1182
a(dp1183
g5
I0
sg6
I0
sg7
I0
sg8
F2.8000000000000007
sg9
I0
sg10
I0
saa(lp1184
V2015-11-21
p1185
a(dp1186
g5
I0
sg6
I0
sg7
F1.6000000000000001
sg8
F3.6000000000000001
sg9
F1.6000000000000001
sg10
I0
saa(lp1187
V2015-11-21
p1188
a(dp1189
g5
I0
sg6
I0
sg7
I0
sg8
F2.4000000000000004
sg9
I0
sg10
I0
saa(lp1190
V2015-11-21
p1191
a(dp1192
g5
I0
sg6
I0
sg7
I0
sg8
F0.80000000000000004
sg9
I0
sg10
I0
saa(lp1193
V2015-11-21
p1194
a(dp1195
g5
I0
sg6
I0
sg7
I0
sg8
F2.4000000000000004
sg9
I0
sg10
I0
saa(lp1196
V2015-11-21
p1197
a(dp1198
g5
I0
sg6
I0
sg7
F0.40000000000000013
sg8
F0.40000000000000013
sg9
F0.40000000000000013
sg10
I0
saa(lp1199
V2015-11-21
p1200
a(dp1201
g5
F-2.3999999999999999
sg6
I0
sg7
F-0.79999999999999982
sg8
F2.7999999999999994
sg9
F0.80000000000000004
sg10
F0.80000000000000004
saa(lp1202
V2015-11-20
p1203
a(dp1204
g5
I0
sg6
I0
sg7
I0
sg8
F0.80000000000000004
sg9
I0
sg10
I0
saa(lp1205
V2015-11-20
p1206
a(dp1207
g5
I0
sg6
I0
sg7
I0
sg8
I0
sg9
I0
sg10
I0
saa(lp1208
V2015-11-20
p1209
a(dp1210
g5
I0
sg6
F0.80000000000000004
sg7
I0
sg8
F4
sg9
I0
sg10
I0
saa(lp1211
V2015-11-20
p1212
a(dp1213
g5
I0
sg6
F0.80000000000000004
sg7
F1.6000000000000001
sg8
F1.2000000000000004
sg9
I0
sg10
I0
saa(lp1214
V2015-11-20
p1215
a(dp1216
g5
I0
sg6
I0
sg7
I0
sg8
F0.80000000000000004
sg9
F0.80000000000000004
sg10
I0
saa(lp1217
V2015-11-20
p1218
a(dp1219
g5
I0
sg6
F0.80000000000000004
sg7
I0
sg8
F1.6000000000000001
sg9
I0
sg10
F0.80000000000000004
saa(lp1220
V2015-11-20
p1221
a(dp1222
g5
I0
sg6
F1.6000000000000001
sg7
I0
sg8
F2.4000000000000004
sg9
F0.80000000000000004
sg10
I0
saa(lp1223
V2015-11-20
p1224
a(dp1225
g5
I0
sg6
I0
sg7
I0
sg8
I0
sg9
I0
sg10
I0
saa(lp1226
V2015-11-19
p1227
a(dp1228
g5
I0
sg6
F1.6000000000000001
sg7
I0
sg8
F2.4000000000000004
sg9
F1.6000000000000001
sg10
I0
saa(lp1229
V2015-11-19
p1230
a(dp1231
g5
I0
sg6
F0.80000000000000004
sg7
F0.80000000000000004
sg8
F4
sg9
F0.80000000000000004
sg10
I0
saa(lp1232
V2015-11-19
p1233
a(dp1234
g5
F0.80000000000000004
sg6
I0
sg7
I0
sg8
F2.4000000000000004
sg9
F0.80000000000000004
sg10
I0
saa(lp1235
V2015-11-19
p1236
a(dp1237
g5
I0
sg6
I0
sg7
F0.80000000000000004
sg8
F1.6000000000000001
sg9
I0
sg10
I0
saa(lp1238
V2015-11-19
p1239
a(dp1240
g5
I0
sg6
I0
sg7
I0
sg8
F-0.39999999999999991
sg9
I0
sg10
I0
saa(lp1241
V2015-11-19
p1242
a(dp1243
g5
I0
sg6
I0
sg7
I0
sg8
F0.80000000000000004
sg9
I0
sg10
I0
saa(lp1244
V2015-11-18
p1245
a(dp1246
g5
I0
sg6
I0
sg7
I0
sg8
F0.80000000000000004
sg9
I0
sg10
I0
saa(lp1247
V2015-11-18
p1248
a(dp1249
g5
I0
sg6
I0
sg7
I0
sg8
I0
sg9
I0
sg10
I0
saa(lp1250
V2015-11-18
p1251
a(dp1252
g5
I0
sg6
F0.80000000000000004
sg7
F0.80000000000000004
sg8
F2
sg9
I0
sg10
I0
saa(lp1253
V2015-11-18
p1254
a(dp1255
g5
I0
sg6
I0
sg7
F0.80000000000000004
sg8
F2.4000000000000004
sg9
I0
sg10
I0
saa(lp1256
V2015-11-18
p1257
a(dp1258
g5
I0
sg6
I0
sg7
I0
sg8
I0
sg9
I0
sg10
I0
saa(lp1259
V2015-11-18
p1260
a(dp1261
g5
I0
sg6
I0
sg7
I0
sg8
I0
sg9
I0
sg10
I0
saa(lp1262
V2015-11-18
p1263
a(dp1264
g5
I0
sg6
I0
sg7
F-1.2
sg8
F0.40000000000000013
sg9
F-1.2
sg10
I0
saa(lp1265
V2015-11-18
p1266
a(dp1267
g5
I0
sg6
F1.6000000000000001
sg7
I0
sg8
F1.6000000000000001
sg9
F1.6000000000000001
sg10
I0
saa(lp1268
V2015-11-18
p1269
a(dp1270
g5
I0
sg6
I0
sg7
I0
sg8
I0
sg9
I0
sg10
I0
saa(lp1271
V2015-11-18
p1272
a(dp1273
g5
I0
sg6
I0
sg7
I0
sg8
F2.4000000000000004
sg9
F0.80000000000000004
sg10
I0
saa(lp1274
V2015-11-18
p1275
a(dp1276
g5
I0
sg6
I0
sg7
I0
sg8
F0.80000000000000004
sg9
I0
sg10
I0
saa(lp1277
V2015-11-18
p1278
a(dp1279
g5
I0
sg6
I0
sg7
I0
sg8
I0
sg9
I0
sg10
I0
saa(lp1280
V2015-11-17
p1281
a(dp1282
g5
I0
sg6
F0.80000000000000004
sg7
I0
sg8
F4
sg9
F0.80000000000000004
sg10
I0
saa(lp1283
V2015-11-17
p1284
a(dp1285
g5
F0.80000000000000004
sg6
I0
sg7
F2.4000000000000004
sg8
F3.2000000000000002
sg9
I0
sg10
I0
saa(lp1286
V2015-11-17
p1287
a(dp1288
g5
I0
sg6
I0
sg7
I0
sg8
F3.2000000000000002
sg9
I0
sg10
I0
saa(lp1289
V2015-11-17
p1290
a(dp1291
g5
I0
sg6
I0
sg7
I0
sg8
F1.6000000000000001
sg9
I0
sg10
I0
saa(lp1292
V2015-11-17
p1293
a(dp1294
g5
I0
sg6
I0
sg7
I0
sg8
F0.80000000000000004
sg9
I0
sg10
I0
saa(lp1295
V2015-11-17
p1296
a(dp1297
g5
I0
sg6
I0
sg7
I0
sg8
F2.4000000000000004
sg9
F1.6000000000000001
sg10
I0
saa(lp1298
V2015-11-17
p1299
a(dp1300
g5
I0
sg6
I0
sg7
I0
sg8
F0.80000000000000004
sg9
F0.80000000000000004
sg10
I0
saa(lp1301
V2015-11-17
p1302
a(dp1303
g5
I0
sg6
F0.80000000000000004
sg7
I0
sg8
F4.7999999999999998
sg9
I0
sg10
I0
saa(lp1304
V2015-11-16
p1305
a(dp1306
g5
I0
sg6
I0
sg7
I0
sg8
F4.7999999999999998
sg9
F2.4000000000000004
sg10
I0
saa(lp1307
V2015-11-15
p1308
a(dp1309
g5
I0
sg6
I0
sg7
I0
sg8
F1.6000000000000001
sg9
F0.80000000000000004
sg10
I0
saa(lp1310
V2015-11-14
p1311
a(dp1312
g5
I0
sg6
I0
sg7
I0
sg8
I0
sg9
I0
sg10
I0
saa(lp1313
V2015-11-14
p1314
a(dp1315
g5
I0
sg6
I0
sg7
I0
sg8
F0.80000000000000004
sg9
F0.80000000000000004
sg10
I0
saa(lp1316
V2015-11-14
p1317
a(dp1318
g5
I0
sg6
I0
sg7
I0
sg8
F0.80000000000000004
sg9
I0
sg10
I0
saa(lp1319
V2015-11-14
p1320
a(dp1321
g5
I0
sg6
I0
sg7
I0
sg8
F2.4000000000000004
sg9
F2.4000000000000004
sg10
I0
saa(lp1322
V2015-11-14
p1323
a(dp1324
g5
I0
sg6
I0
sg7
I0
sg8
I0
sg9
I0
sg10
I0
saa(lp1325
V2015-11-13
p1326
a(dp1327
g5
I0
sg6
I0
sg7
I0
sg8
I0
sg9
I0
sg10
I0
saa(lp1328
V2015-11-13
p1329
a(dp1330
g5
I0
sg6
I0
sg7
I0
sg8
F1.6000000000000001
sg9
F1.6000000000000001
sg10
I0
saa(lp1331
V2015-11-13
p1332
a(dp1333
g5
I0
sg6
I0
sg7
I0
sg8
F3.2000000000000002
sg9
I0
sg10
I0
saa(lp1334
V2015-11-13
p1335
a(dp1336
g5
I0
sg6
I0
sg7
F-1.2
sg8
F-2.3999999999999999
sg9
I0
sg10
I0
saa(lp1337
V2015-11-13
p1338
a(dp1339
g5
I0
sg6
F-1.2
sg7
F-1.2
sg8
F-2.3999999999999999
sg9
F-1.2
sg10
I0
saa(lp1340
V2015-11-13
p1341
a(dp1342
g5
I0
sg6
F3.2000000000000002
sg7
I0
sg8
F5.6000000000000005
sg9
I0
sg10
I0
saa(lp1343
V2015-11-12
p1344
a(dp1345
g5
I0
sg6
I0
sg7
I0
sg8
F1.6000000000000001
sg9
F0.80000000000000004
sg10
I0
saa(lp1346
V2015-11-12
p1347
a(dp1348
g5
I0
sg6
I0
sg7
I0
sg8
I0
sg9
I0
sg10
I0
saa(lp1349
V2015-11-12
p1350
a(dp1351
g5
I0
sg6
I0
sg7
F0.80000000000000004
sg8
F0.40000000000000013
sg9
I0
sg10
I0
saa(lp1352
V2015-11-12
p1353
a(dp1354
g5
I0
sg6
I0
sg7
I0
sg8
F2.4000000000000004
sg9
F2.4000000000000004
sg10
I0
saa(lp1355
V2015-11-12
p1356
a(dp1357
g5
I0
sg6
I0
sg7
I0
sg8
F-1.2
sg9
I0
sg10
I0
saa(lp1358
V2015-11-12
p1359
a(dp1360
g5
I0
sg6
I0
sg7
I0
sg8
F3.5999999999999996
sg9
I0
sg10
F0.40000000000000013
saa(lp1361
V2015-11-12
p1362
a(dp1363
g5
I0
sg6
I0
sg7
I0
sg8
F2.4000000000000004
sg9
F1.6000000000000001
sg10
I0
saa(lp1364
V2015-11-12
p1365
a(dp1366
g5
I0
sg6
I0
sg7
I0
sg8
I0
sg9
I0
sg10
I0
saa(lp1367
V2015-11-11
p1368
a(dp1369
g5
F0.80000000000000004
sg6
I0
sg7
I0
sg8
F-1.9999999999999998
sg9
I0
sg10
I0
saa(lp1370
V2015-11-10
p1371
a(dp1372
g5
I0
sg6
I0
sg7
I0
sg8
F0.40000000000000013
sg9
I0
sg10
I0
saa(lp1373
V2015-11-10
p1374
a(dp1375
g5
I0
sg6
I0
sg7
I0
sg8
F2.4000000000000004
sg9
I0
sg10
F1.6000000000000001
saa(lp1376
V2015-11-10
p1377
a(dp1378
g5
I0
sg6
I0
sg7
I0
sg8
F0.80000000000000004
sg9
I0
sg10
I0
saa(lp1379
V2015-11-10
p1380
a(dp1381
g5
I0
sg6
I0
sg7
F3.2000000000000002
sg8
F3.2000000000000002
sg9
I0
sg10
I0
saa(lp1382
V2015-11-10
p1383
a(dp1384
g5
F0.80000000000000004
sg6
I0
sg7
I0
sg8
F4
sg9
F0.80000000000000004
sg10
F0.80000000000000004
saa(lp1385
V2015-11-10
p1386
a(dp1387
g5
I0
sg6
I0
sg7
I0
sg8
I0
sg9
I0
sg10
I0
saa(lp1388
V2015-11-10
p1389
a(dp1390
g5
I0
sg6
I0
sg7
I0
sg8
F3.2000000000000002
sg9
I0
sg10
I0
saa(lp1391
V2015-11-10
p1392
a(dp1393
g5
I0
sg6
F1.6000000000000001
sg7
F1.6000000000000001
sg8
F1.6000000000000001
sg9
I0
sg10
F1.6000000000000001
saa(lp1394
V2015-11-09
p1395
a(dp1396
g5
I0
sg6
I0
sg7
I0
sg8
F0.80000000000000004
sg9
I0
sg10
F0.80000000000000004
saa(lp1397
V2015-11-09
p1398
a(dp1399
g5
I0
sg6
I0
sg7
I0
sg8
F1.6000000000000001
sg9
I0
sg10
I0
saa(lp1400
V2015-11-09
p1401
a(dp1402
g5
I0
sg6
I0
sg7
F2.4000000000000004
sg8
F3.2000000000000002
sg9
I0
sg10
I0
saa(lp1403
V2015-11-09
p1404
a(dp1405
g5
F2.4000000000000004
sg6
I0
sg7
I0
sg8
F2.4000000000000004
sg9
F2.4000000000000004
sg10
I0
saa(lp1406
V2015-11-09
p1407
a(dp1408
g5
I0
sg6
I0
sg7
I0
sg8
F0.40000000000000013
sg9
F0.80000000000000004
sg10
F0.80000000000000004
saa(lp1409
V2015-11-08
p1410
a(dp1411
g5
I0
sg6
I0
sg7
I0
sg8
F0.80000000000000004
sg9
I0
sg10
I0
saa(lp1412
V2015-11-08
p1413
a(dp1414
g5
I0
sg6
I0
sg7
I0
sg8
F-0.79999999999999982
sg9
I0
sg10
F-0.39999999999999991
saa(lp1415
V2015-11-08
p1416
a(dp1417
g5
I0
sg6
I0
sg7
I0
sg8
F4.8000000000000007
sg9
F1.6000000000000001
sg10
I0
saa(lp1418
V2015-11-08
p1419
a(dp1420
g5
I0
sg6
I0
sg7
I0
sg8
F-1.2
sg9
I0
sg10
I0
saa(lp1421
V2015-11-08
p1422
a(dp1423
g5
I0
sg6
I0
sg7
I0
sg8
F4.8000000000000007
sg9
F3.2000000000000002
sg10
I0
saa(lp1424
V2015-11-08
p1425
a(dp1426
g5
I0
sg6
F1.6000000000000001
sg7
I0
sg8
F5.5999999999999996
sg9
F1.6000000000000001
sg10
I0
saa(lp1427
V2015-11-08
p1428
a(dp1429
g5
I0
sg6
I0
sg7
I0
sg8
F1.6000000000000001
sg9
I0
sg10
F0.80000000000000004
saa(lp1430
V2015-11-08
p1431
a(dp1432
g5
I0
sg6
I0
sg7
I0
sg8
F1.6000000000000001
sg9
I0
sg10
F0.80000000000000004
saa(lp1433
V2015-11-07
p1434
a(dp1435
g5
F-0.39999999999999991
sg6
I0
sg7
I0
sg8
F1.6000000000000003
sg9
I0
sg10
I0
saa(lp1436
V2015-11-07
p1437
a(dp1438
g5
I0
sg6
I0
sg7
F2.4000000000000004
sg8
F2.4000000000000004
sg9
I0
sg10
F2.4000000000000004
saa(lp1439
V2015-11-07
p1440
a(dp1441
g5
F0.80000000000000004
sg6
I0
sg7
F-1.2
sg8
F2.0000000000000004
sg9
F2.4000000000000004
sg10
I0
saa(lp1442
V2015-11-07
p1443
a(dp1444
g5
F0.80000000000000004
sg6
I0
sg7
I0
sg8
F0.80000000000000004
sg9
I0
sg10
I0
saa(lp1445
V2015-11-07
p1446
a(dp1447
g5
I0
sg6
I0
sg7
I0
sg8
F1.6000000000000001
sg9
I0
sg10
I0
saa(lp1448
V2015-11-07
p1449
a(dp1450
g5
I0
sg6
I0
sg7
F0.80000000000000004
sg8
F0.80000000000000004
sg9
F0.80000000000000004
sg10
I0
saa(lp1451
V2015-11-06
p1452
a(dp1453
g5
I0
sg6
I0
sg7
I0
sg8
F1.6000000000000001
sg9
I0
sg10
F1.6000000000000001
saa(lp1454
V2015-11-06
p1455
a(dp1456
g5
I0
sg6
I0
sg7
I0
sg8
I0
sg9
I0
sg10
I0
saa(lp1457
V2015-11-06
p1458
a(dp1459
g5
I0
sg6
I0
sg7
I0
sg8
F0.80000000000000004
sg9
I0
sg10
I0
saa(lp1460
V2015-11-06
p1461
a(dp1462
g5
I0
sg6
I0
sg7
I0
sg8
I0
sg9
I0
sg10
I0
saa(lp1463
V2015-11-05
p1464
a(dp1465
g5
I0
sg6
I0
sg7
I0
sg8
I0
sg9
I0
sg10
I0
saa(lp1466
V2015-11-05
p1467
a(dp1468
g5
F0.80000000000000004
sg6
F-0.39999999999999991
sg7
I0
sg8
F5.9999999999999991
sg9
I0
sg10
I0
saa(lp1469
V2015-11-05
p1470
a(dp1471
g5
I0
sg6
I0
sg7
I0
sg8
F-0.39999999999999991
sg9
F-0.39999999999999991
sg10
F-0.39999999999999991
saa(lp1472
V2015-11-05
p1473
a(dp1474
g5
I0
sg6
I0
sg7
I0
sg8
F-1.2
sg9
I0
sg10
I0
saa(lp1475
V2015-11-05
p1476
a(dp1477
g5
I0
sg6
I0
sg7
I0
sg8
F7.1999999999999993
sg9
F0.80000000000000004
sg10
I0
saa(lp1478
V2015-11-05
p1479
a(dp1480
g5
I0
sg6
I0
sg7
I0
sg8
F-0.39999999999999991
sg9
I0
sg10
I0
saa(lp1481
V2015-11-05
p1482
a(dp1483
g5
I0
sg6
I0
sg7
I0
sg8
F-1.5999999999999999
sg9
F-1.5999999999999999
sg10
I0
saa(lp1484
V2015-11-04
p1485
a(dp1486
g5
I0
sg6
I0
sg7
I0
sg8
F1.2000000000000002
sg9
I0
sg10
I0
saa(lp1487
V2015-11-04
p1488
a(dp1489
g5
I0
sg6
I0
sg7
I0
sg8
F-1.9999999999999998
sg9
F0.80000000000000004
sg10
I0
saa(lp1490
V2015-11-04
p1491
a(dp1492
g5
I0
sg6
I0
sg7
I0
sg8
I0
sg9
I0
sg10
I0
saa(lp1493
V2015-11-04
p1494
a(dp1495
g5
I0
sg6
F0.80000000000000004
sg7
I0
sg8
F0.80000000000000004
sg9
I0
sg10
I0
saa(lp1496
V2015-11-04
p1497
a(dp1498
g5
I0
sg6
I0
sg7
I0
sg8
I0
sg9
I0
sg10
I0
saa(lp1499
V2015-11-04
p1500
a(dp1501
g5
I0
sg6
I0
sg7
I0
sg8
I0
sg9
I0
sg10
I0
saa(lp1502
V2015-11-04
p1503
a(dp1504
g5
F2.4000000000000004
sg6
I0
sg7
F2.4000000000000004
sg8
F2.4000000000000004
sg9
I0
sg10
I0
saa(lp1505
V2015-11-04
p1506
a(dp1507
g5
I0
sg6
I0
sg7
I0
sg8
F2.4000000000000004
sg9
I0
sg10
I0
saa(lp1508
V2015-11-04
p1509
a(dp1510
g5
F2.3999999999999995
sg6
F4
sg7
F3.2000000000000002
sg8
F16
sg9
F7.2000000000000002
sg10
I0
saa(lp1511
V2015-11-04
p1512
a(dp1513
g5
I0
sg6
F0.40000000000000013
sg7
F0.80000000000000004
sg8
F5.5999999999999996
sg9
F0.80000000000000004
sg10
I0
saa(lp1514
V2015-11-04
p1515
a(dp1516
g5
I0
sg6
I0
sg7
I0
sg8
F1.6000000000000001
sg9
F1.6000000000000001
sg10
I0
saa(lp1517
V2015-11-04
p1518
a(dp1519
g5
I0
sg6
F0.80000000000000004
sg7
F0.80000000000000004
sg8
F3.2000000000000002
sg9
I0
sg10
I0
saa(lp1520
V2015-11-04
p1521
a(dp1522
g5
I0
sg6
I0
sg7
I0
sg8
F2.4000000000000004
sg9
I0
sg10
F2.4000000000000004
saa(lp1523
V2015-11-03
p1524
a(dp1525
g5
I0
sg6
F1.6000000000000001
sg7
I0
sg8
F3.2000000000000002
sg9
I0
sg10
I0
saa(lp1526
V2015-11-03
p1527
a(dp1528
g5
I0
sg6
I0
sg7
I0
sg8
F2.0000000000000004
sg9
I0
sg10
I0
saa(lp1529
V2015-11-03
p1530
a(dp1531
g5
I0
sg6
I0
sg7
I0
sg8
I0
sg9
I0
sg10
I0
saa(lp1532
V2015-11-03
p1533
a(dp1534
g5
I0
sg6
I0
sg7
I0
sg8
F0.80000000000000004
sg9
I0
sg10
I0
saa(lp1535
V2015-11-03
p1536
a(dp1537
g5
I0
sg6
I0
sg7
I0
sg8
I0
sg9
I0
sg10
I0
saa(lp1538
V2015-11-03
p1539
a(dp1540
g5
F4.3999999999999995
sg6
F4.3999999999999995
sg7
I0
sg8
F4.3999999999999995
sg9
F4.3999999999999995
sg10
I0
saa(lp1541
V2015-11-03
p1542
a(dp1543
g5
I0
sg6
F-2.3999999999999999
sg7
I0
sg8
F-2.3999999999999999
sg9
I0
sg10
I0
saa(lp1544
V2015-11-03
p1545
a(dp1546
g5
I0
sg6
I0
sg7
I0
sg8
F1.6000000000000001
sg9
F1.6000000000000001
sg10
I0
saa(lp1547
V2015-11-03
p1548
a(dp1549
g5
I0
sg6
I0
sg7
I0
sg8
F1.2000000000000004
sg9
I0
sg10
I0
saa(lp1550
V2015-11-02
p1551
a(dp1552
g5
I0
sg6
I0
sg7
I0
sg8
F0.40000000000000013
sg9
F-0.39999999999999991
sg10
I0
saa(lp1553
V2015-11-02
p1554
a(dp1555
g5
I0
sg6
I0
sg7
I0
sg8
F0.40000000000000013
sg9
I0
sg10
I0
saa(lp1556
V2015-11-02
p1557
a(dp1558
g5
I0
sg6
I0
sg7
I0
sg8
F-0.39999999999999991
sg9
I0
sg10
I0
saa(lp1559
V2015-11-02
p1560
a(dp1561
g5
I0
sg6
I0
sg7
I0
sg8
I0
sg9
I0
sg10
I0
saa(lp1562
V2015-11-01
p1563
a(dp1564
g5
I0
sg6
I0
sg7
F0.80000000000000004
sg8
F3.5999999999999996
sg9
I0
sg10
F1.6000000000000001
saa(lp1565
V2015-11-01
p1566
a(dp1567
g5
I0
sg6
I0
sg7
I0
sg8
F0.80000000000000004
sg9
F0.80000000000000004
sg10
I0
saa(lp1568
V2015-11-01
p1569
a(dp1570
g5
I0
sg6
I0
sg7
I0
sg8
I0
sg9
I0
sg10
I0
saa(lp1571
V2015-10-31
p1572
a(dp1573
g5
I0
sg6
I0
sg7
I0
sg8
F0.80000000000000004
sg9
I0
sg10
I0
saa(lp1574
V2015-10-31
p1575
a(dp1576
g5
I0
sg6
I0
sg7
I0
sg8
F1.6000000000000001
sg9
I0
sg10
I0
saa(lp1577
V2015-10-31
p1578
a(dp1579
g5
I0
sg6
I0
sg7
I0
sg8
I0
sg9
I0
sg10
I0
saa(lp1580
V2015-10-31
p1581
a(dp1582
g5
I0
sg6
I0
sg7
I0
sg8
F0.80000000000000004
sg9
I0
sg10
I0
saa(lp1583
V2015-10-31
p1584
a(dp1585
g5
I0
sg6
I0
sg7
I0
sg8
F-1.5999999999999999
sg9
I0
sg10
I0
saa(lp1586
V2015-10-30
p1587
a(dp1588
g5
I0
sg6
I0
sg7
F1.6000000000000001
sg8
F1.6000000000000001
sg9
I0
sg10
I0
saa(lp1589
V2015-10-30
p1590
a(dp1591
g5
I0
sg6
I0
sg7
I0
sg8
F0.80000000000000004
sg9
F0.80000000000000004
sg10
I0
saa(lp1592
V2015-10-30
p1593
a(dp1594
g5
I0
sg6
I0
sg7
F1.6000000000000001
sg8
F1.6000000000000001
sg9
I0
sg10
I0
saa(lp1595
V2015-10-30
p1596
a(dp1597
g5
F0.40000000000000013
sg6
I0
sg7
I0
sg8
F0.40000000000000013
sg9
I0
sg10
F0.40000000000000013
saa(lp1598
V2015-10-30
p1599
a(dp1600
g5
I0
sg6
F1.6000000000000001
sg7
I0
sg8
F2.4000000000000004
sg9
I0
sg10
I0
saa(lp1601
V2015-10-30
p1602
a(dp1603
g5
I0
sg6
I0
sg7
F3.2000000000000002
sg8
F4
sg9
I0
sg10
I0
saa(lp1604
V2015-10-30
p1605
a(dp1606
g5
I0
sg6
I0
sg7
I0
sg8
F0.40000000000000013
sg9
I0
sg10
F0.80000000000000004
saa(lp1607
V2015-10-29
p1608
a(dp1609
g5
I0
sg6
I0
sg7
I0
sg8
F0.80000000000000004
sg9
I0
sg10
I0
saa(lp1610
V2015-10-29
p1611
a(dp1612
g5
I0
sg6
I0
sg7
I0
sg8
F1.6000000000000001
sg9
F0.80000000000000004
sg10
I0
saa(lp1613
V2015-10-29
p1614
a(dp1615
g5
I0
sg6
I0
sg7
I0
sg8
F0.40000000000000013
sg9
I0
sg10
I0
saa(lp1616
V2015-10-29
p1617
a(dp1618
g5
I0
sg6
I0
sg7
I0
sg8
F2.4000000000000004
sg9
F2.4000000000000004
sg10
I0
saa(lp1619
V2015-10-29
p1620
a(dp1621
g5
I0
sg6
I0
sg7
I0
sg8
F0.80000000000000004
sg9
I0
sg10
I0
saa(lp1622
V2015-10-29
p1623
a(dp1624
g5
I0
sg6
I0
sg7
I0
sg8
F0.40000000000000013
sg9
F1.6000000000000001
sg10
I0
saa(lp1625
V2015-10-29
p1626
a(dp1627
g5
I0
sg6
I0
sg7
I0
sg8
F4.7999999999999998
sg9
F0.80000000000000004
sg10
I0
saa(lp1628
V2015-10-29
p1629
a(dp1630
g5
I0
sg6
I0
sg7
I0
sg8
F5.1999999999999993
sg9
F0.80000000000000004
sg10
I0
saa(lp1631
V2015-10-28
p1632
a(dp1633
g5
I0
sg6
I0
sg7
I0
sg8
F2.4000000000000004
sg9
F0.80000000000000004
sg10
I0
saa(lp1634
V2015-10-28
p1635
a(dp1636
g5
I0
sg6
I0
sg7
I0
sg8
F2.4000000000000004
sg9
F0.80000000000000004
sg10
F0.80000000000000004
saa(lp1637
V2015-10-27
p1638
a(dp1639
g5
I0
sg6
F0.80000000000000004
sg7
I0
sg8
F4
sg9
F0.80000000000000004
sg10
F0.80000000000000004
saa(lp1640
V2015-10-27
p1641
a(dp1642
g5
I0
sg6
I0
sg7
I0
sg8
I0
sg9
I0
sg10
I0
saa(lp1643
V2015-10-27
p1644
a(dp1645
g5
I0
sg6
I0
sg7
I0
sg8
I0
sg9
I0
sg10
I0
saa(lp1646
V2015-10-26
p1647
a(dp1648
g5
I0
sg6
I0
sg7
I0
sg8
I0
sg9
I0
sg10
I0
saa(lp1649
V2015-10-26
p1650
a(dp1651
g5
I0
sg6
F0.80000000000000004
sg7
I0
sg8
F0.80000000000000004
sg9
F0.80000000000000004
sg10
I0
saa(lp1652
V2015-10-26
p1653
a(dp1654
g5
I0
sg6
F2.8000000000000003
sg7
F0.80000000000000004
sg8
F13.599999999999998
sg9
F1.6000000000000001
sg10
I0
saa(lp1655
V2015-10-26
p1656
a(dp1657
g5
I0
sg6
I0
sg7
I0
sg8
F0.80000000000000004
sg9
F0.80000000000000004
sg10
I0
saa(lp1658
V2015-10-26
p1659
a(dp1660
g5
I0
sg6
I0
sg7
I0
sg8
F0.80000000000000004
sg9
I0
sg10
F0.80000000000000004
saa(lp1661
V2015-10-26
p1662
a(dp1663
g5
I0
sg6
I0
sg7
I0
sg8
F1.6000000000000001
sg9
I0
sg10
I0
saa(lp1664
V2015-10-26
p1665
a(dp1666
g5
I0
sg6
I0
sg7
I0
sg8
F-1.2
sg9
I0
sg10
I0
saa(lp1667
V2015-10-26
p1668
a(dp1669
g5
I0
sg6
I0
sg7
I0
sg8
F1.6000000000000001
sg9
F1.6000000000000001
sg10
I0
saa(lp1670
V2015-10-25
p1671
a(dp1672
g5
I0
sg6
I0
sg7
I0
sg8
F2.4000000000000004
sg9
F0.80000000000000004
sg10
I0
saa(lp1673
V2015-10-25
p1674
a(dp1675
g5
I0
sg6
I0
sg7
I0
sg8
F0.40000000000000013
sg9
I0
sg10
I0
saa(lp1676
V2015-10-25
p1677
a(dp1678
g5
I0
sg6
I0
sg7
I0
sg8
F1.6000000000000001
sg9
I0
sg10
I0
saa(lp1679
V2015-10-25
p1680
a(dp1681
g5
I0
sg6
I0
sg7
I0
sg8
F2.4000000000000004
sg9
I0
sg10
I0
saa(lp1682
V2015-10-24
p1683
a(dp1684
g5
I0
sg6
I0
sg7
I0
sg8
F4
sg9
F0.80000000000000004
sg10
I0
saa(lp1685
V2015-10-23
p1686
a(dp1687
g5
I0
sg6
I0
sg7
F1.6000000000000001
sg8
F3.2000000000000002
sg9
I0
sg10
I0
saa(lp1688
V2015-10-23
p1689
a(dp1690
g5
I0
sg6
I0
sg7
I0
sg8
F1.6000000000000001
sg9
I0
sg10
I0
saa(lp1691
V2015-10-23
p1692
a(dp1693
g5
F0.80000000000000004
sg6
I0
sg7
I0
sg8
F4.8000000000000007
sg9
I0
sg10
I0
saa(lp1694
V2015-10-23
p1695
a(dp1696
g5
I0
sg6
I0
sg7
I0
sg8
I0
sg9
I0
sg10
I0
saa(lp1697
V2015-10-23
p1698
a(dp1699
g5
I0
sg6
I0
sg7
I0
sg8
I0
sg9
I0
sg10
I0
saa(lp1700
V2015-10-23
p1701
a(dp1702
g5
I0
sg6
F4
sg7
I0
sg8
F4
sg9
F4
sg10
I0
saa(lp1703
V2015-10-22
p1704
a(dp1705
g5
I0
sg6
F0.80000000000000004
sg7
I0
sg8
F1.2000000000000002
sg9
I0
sg10
I0
saa(lp1706
V2015-10-22
p1707
a(dp1708
g5
I0
sg6
I0
sg7
F0.80000000000000004
sg8
F2.4000000000000004
sg9
I0
sg10
I0
saa(lp1709
V2015-10-22
p1710
a(dp1711
g5
F0.40000000000000013
sg6
I0
sg7
I0
sg8
F1.2000000000000002
sg9
I0
sg10
I0
saa(lp1712
V2015-10-21
p1713
a(dp1714
g5
F0.40000000000000013
sg6
I0
sg7
F0.40000000000000013
sg8
F0.40000000000000013
sg9
F0.40000000000000013
sg10
I0
saa(lp1715
V2015-10-21
p1716
a(dp1717
g5
I0
sg6
I0
sg7
I0
sg8
F-0.39999999999999991
sg9
F-0.39999999999999991
sg10
F-0.39999999999999991
saa(lp1718
V2015-10-21
p1719
a(dp1720
g5
I0
sg6
I0
sg7
I0
sg8
F-0.39999999999999991
sg9
F-0.39999999999999991
sg10
F-0.39999999999999991
saa(lp1721
V2015-10-20
p1722
a(dp1723
g5
I0
sg6
I0
sg7
I0
sg8
F3.2000000000000002
sg9
F3.2000000000000002
sg10
F3.2000000000000002
saa(lp1724
V2015-10-18
p1725
a(dp1726
g5
I0
sg6
F1.6000000000000001
sg7
I0
sg8
F1.6000000000000001
sg9
F1.6000000000000001
sg10
I0
saa(lp1727
V2015-10-18
p1728
a(dp1729
g5
I0
sg6
I0
sg7
I0
sg8
I0
sg9
I0
sg10
I0
saa(lp1730
V2015-10-17
p1731
a(dp1732
g5
I0
sg6
I0
sg7
I0
sg8
F1.6000000000000001
sg9
I0
sg10
I0
saa(lp1733
V2015-10-17
p1734
a(dp1735
g5
I0
sg6
I0
sg7
I0
sg8
F0.80000000000000004
sg9
I0
sg10
I0
saa(lp1736
V2015-10-17
p1737
a(dp1738
g5
I0
sg6
F0.40000000000000013
sg7
I0
sg8
F0.40000000000000013
sg9
F0.40000000000000013
sg10
I0
saa(lp1739
V2015-10-17
p1740
a(dp1741
g5
I0
sg6
F0.80000000000000004
sg7
I0
sg8
F0.40000000000000013
sg9
F0.80000000000000004
sg10
I0
saa(lp1742
V2015-10-17
p1743
a(dp1744
g5
I0
sg6
I0
sg7
F1.2
sg8
F1.2
sg9
F1.2
sg10
I0
saa(lp1745
V2015-10-16
p1746
a(dp1747
g5
I0
sg6
I0
sg7
F1.6000000000000001
sg8
F1.6000000000000001
sg9
I0
sg10
F1.6000000000000001
saa(lp1748
V2015-10-16
p1749
a(dp1750
g5
I0
sg6
I0
sg7
I0
sg8
I0
sg9
I0
sg10
I0
saa(lp1751
V2015-10-16
p1752
a(dp1753
g5
F0.80000000000000004
sg6
I0
sg7
I0
sg8
F2.3999999999999999
sg9
I0
sg10
I0
saa(lp1754
V2015-10-15
p1755
a(dp1756
g5
I0
sg6
I0
sg7
I0
sg8
F0.80000000000000004
sg9
I0
sg10
I0
saa(lp1757
V2015-10-15
p1758
a(dp1759
g5
I0
sg6
I0
sg7
I0
sg8
F1.6000000000000001
sg9
I0
sg10
I0
saa(lp1760
V2015-10-14
p1761
a(dp1762
g5
I0
sg6
I0
sg7
I0
sg8
F-1.2
sg9
I0
sg10
I0
saa(lp1763
V2015-10-14
p1764
a(dp1765
g5
I0
sg6
I0
sg7
I0
sg8
F2.4000000000000004
sg9
I0
sg10
I0
saa(lp1766
V2015-10-13
p1767
a(dp1768
g5
F0.80000000000000004
sg6
I0
sg7
I0
sg8
F-0.79999999999999982
sg9
I0
sg10
I0
saa(lp1769
V2015-10-12
p1770
a(dp1771
g5
I0
sg6
I0
sg7
I0
sg8
F2.0000000000000004
sg9
F0.80000000000000004
sg10
I0
saa(lp1772
V2015-10-12
p1773
a(dp1774
g5
I0
sg6
I0
sg7
I0
sg8
F0.80000000000000004
sg9
F0.80000000000000004
sg10
I0
saa(lp1775
V2015-10-09
p1776
a(dp1777
g5
I0
sg6
I0
sg7
I0
sg8
F0.80000000000000004
sg9
I0
sg10
I0
saa(lp1778
V2015-10-08
p1779
a(dp1780
g5
I0
sg6
I0
sg7
I0
sg8
F1.6000000000000001
sg9
I0
sg10
I0
saa(lp1781
V2015-10-08
p1782
a(dp1783
g5
I0
sg6
F1.6000000000000001
sg7
I0
sg8
F2.4000000000000004
sg9
F0.80000000000000004
sg10
I0
saa(lp1784
V2015-10-08
p1785
a(dp1786
g5
I0
sg6
F1.6000000000000001
sg7
I0
sg8
F8.4000000000000004
sg9
F3.6000000000000005
sg10
I0
saa(lp1787
V2015-10-08
p1788
a(dp1789
g5
I0
sg6
F0.80000000000000004
sg7
I0
sg8
F0.80000000000000004
sg9
F0.80000000000000004
sg10
I0
saa(lp1790
V2015-10-08
p1791
a(dp1792
g5
I0
sg6
I0
sg7
I0
sg8
F0.80000000000000004
sg9
F0.80000000000000004
sg10
I0
saa(lp1793
V2015-10-06
p1794
a(dp1795
g5
I0
sg6
I0
sg7
I0
sg8
F-1.2
sg9
I0
sg10
I0
saa(lp1796
V2015-10-06
p1797
a(dp1798
g5
I0
sg6
I0
sg7
I0
sg8
F-1.2
sg9
I0
sg10
I0
saa(lp1799
V2015-10-05
p1800
a(dp1801
g5
F4
sg6
I0
sg7
I0
sg8
F4
sg9
F3.5999999999999996
sg10
F3.5999999999999996
saa(lp1802
V2015-10-05
p1803
a(dp1804
g5
I0
sg6
F0.80000000000000004
sg7
F0.80000000000000004
sg8
F0.80000000000000004
sg9
I0
sg10
I0
saa(lp1805
V2015-10-05
p1806
a(dp1807
g5
I0
sg6
I0
sg7
I0
sg8
F-1.5999999999999999
sg9
I0
sg10
I0
saa(lp1808
V2015-10-05
p1809
a(dp1810
g5
I0
sg6
F1.2000000000000002
sg7
I0
sg8
F-1.5999999999999996
sg9
F1.2000000000000002
sg10
I0
saa(lp1811
V2015-10-03
p1812
a(dp1813
g5
I0
sg6
I0
sg7
I0
sg8
F3.2000000000000002
sg9
I0
sg10
I0
saa(lp1814
V2015-10-03
p1815
a(dp1816
g5
F0.80000000000000004
sg6
I0
sg7
I0
sg8
F2.4000000000000004
sg9
I0
sg10
I0
saa(lp1817
V2015-10-03
p1818
a(dp1819
g5
I0
sg6
I0
sg7
I0
sg8
I0
sg9
I0
sg10
I0
saa(lp1820
V2015-09-30
p1821
a(dp1822
g5
I0
sg6
I0
sg7
I0
sg8
I0
sg9
I0
sg10
I0
saa(lp1823
V2015-09-30
p1824
a(dp1825
g5
I0
sg6
F0.80000000000000004
sg7
I0
sg8
F4
sg9
I0
sg10
I0
saa(lp1826
V2015-09-30
p1827
a(dp1828
g5
I0
sg6
F2.4000000000000004
sg7
F2.4000000000000004
sg8
F2.4000000000000004
sg9
F2.4000000000000004
sg10
I0
saa(lp1829
V2015-09-30
p1830
a(dp1831
g5
I0
sg6
I0
sg7
F0.80000000000000004
sg8
F0.80000000000000004
sg9
I0
sg10
I0
saa(lp1832
V2015-09-30
p1833
a(dp1834
g5
I0
sg6
I0
sg7
I0
sg8
I0
sg9
I0
sg10
I0
saa(lp1835
V2015-09-29
p1836
a(dp1837
g5
I0
sg6
I0
sg7
I0
sg8
F-0.39999999999999991
sg9
I0
sg10
F-0.39999999999999991
saa(lp1838
V2015-09-28
p1839
a(dp1840
g5
I0
sg6
I0
sg7
I0
sg8
F-1.2
sg9
I0
sg10
I0
saa(lp1841
V2015-09-27
p1842
a(dp1843
g5
I0
sg6
I0
sg7
I0
sg8
I0
sg9
I0
sg10
I0
saa(lp1844
V2015-09-27
p1845
a(dp1846
g5
I0
sg6
I0
sg7
I0
sg8
F0.80000000000000004
sg9
I0
sg10
I0
saa(lp1847
V2015-09-26
p1848
a(dp1849
g5
I0
sg6
F0.80000000000000004
sg7
I0
sg8
F1.6000000000000001
sg9
I0
sg10
I0
saa(lp1850
V2015-09-26
p1851
a(dp1852
g5
I0
sg6
I0
sg7
F1.6000000000000001
sg8
F1.6000000000000001
sg9
I0
sg10
I0
saa(lp1853
V2015-09-26
p1854
a(dp1855
g5
I0
sg6
I0
sg7
I0
sg8
F0.80000000000000004
sg9
I0
sg10
I0
saa(lp1856
V2015-09-26
p1857
a(dp1858
g5
I0
sg6
I0
sg7
I0
sg8
F5.1999999999999993
sg9
I0
sg10
I0
saa(lp1859
V2015-09-25
p1860
a(dp1861
g5
I0
sg6
I0
sg7
I0
sg8
F4.7999999999999998
sg9
F2.4000000000000004
sg10
I0
saa(lp1862
V2015-09-25
p1863
a(dp1864
g5
I0
sg6
I0
sg7
I0
sg8
I0
sg9
I0
sg10
I0
saa(lp1865
V2015-09-24
p1866
a(dp1867
g5
I0
sg6
I0
sg7
I0
sg8
F0.80000000000000004
sg9
I0
sg10
I0
saa(lp1868
V2015-09-24
p1869
a(dp1870
g5
I0
sg6
I0
sg7
I0
sg8
F-0.39999999999999991
sg9
I0
sg10
I0
saa(lp1871
V2015-09-24
p1872
a(dp1873
g5
I0
sg6
F0.80000000000000004
sg7
I0
sg8
F1.2000000000000002
sg9
F1.6000000000000001
sg10
I0
saa(lp1874
V2015-09-23
p1875
a(dp1876
g5
I0
sg6
F1.6000000000000001
sg7
I0
sg8
F4.8000000000000007
sg9
F1.6000000000000001
sg10
I0
saa(lp1877
V2015-09-23
p1878
a(dp1879
g5
I0
sg6
I0
sg7
I0
sg8
F-0.79999999999999982
sg9
F0.40000000000000013
sg10
I0
saa(lp1880
V2015-09-23
p1881
a(dp1882
g5
I0
sg6
I0
sg7
I0
sg8
F0.80000000000000004
sg9
I0
sg10
I0
saa(lp1883
V2015-09-23
p1884
a(dp1885
g5
I0
sg6
I0
sg7
I0
sg8
I0
sg9
I0
sg10
I0
saa(lp1886
V2015-09-23
p1887
a(dp1888
g5
F0.40000000000000013
sg6
F-0.39999999999999991
sg7
I0
sg8
F2.2204460492503131e-16
sg9
F-0.39999999999999991
sg10
I0
saa(lp1889
V2015-09-23
p1890
a(dp1891
g5
I0
sg6
I0
sg7
I0
sg8
I0
sg9
I0
sg10
I0
saa(lp1892
V2015-09-23
p1893
a(dp1894
g5
I0
sg6
I0
sg7
I0
sg8
F-1.5999999999999999
sg9
F-1.5999999999999999
sg10
I0
saa(lp1895
V2015-09-23
p1896
a(dp1897
g5
I0
sg6
I0
sg7
I0
sg8
F-0.39999999999999991
sg9
I0
sg10
I0
saa(lp1898
V2015-09-22
p1899
a(dp1900
g5
I0
sg6
I0
sg7
I0
sg8
F0.80000000000000004
sg9
I0
sg10
I0
saa(lp1901
V2015-09-22
p1902
a(dp1903
g5
I0
sg6
I0
sg7
I0
sg8
F4.4000000000000004
sg9
I0
sg10
I0
saa(lp1904
V2015-09-22
p1905
a(dp1906
g5
I0
sg6
I0
sg7
I0
sg8
I0
sg9
I0
sg10
I0
saa(lp1907
V2015-09-22
p1908
a(dp1909
g5
I0
sg6
I0
sg7
I0
sg8
F2.4000000000000004
sg9
F2.4000000000000004
sg10
I0
saa(lp1910
V2015-09-22
p1911
a(dp1912
g5
I0
sg6
I0
sg7
I0
sg8
F1.6000000000000001
sg9
I0
sg10
I0
saa(lp1913
V2015-09-22
p1914
a(dp1915
g5
I0
sg6
I0
sg7
I0
sg8
F-1.5999999999999999
sg9
I0
sg10
I0
saa(lp1916
V2015-09-22
p1917
a(dp1918
g5
I0
sg6
I0
sg7
I0
sg8
F1.6000000000000001
sg9
I0
sg10
I0
saa(lp1919
V2015-09-22
p1920
a(dp1921
g5
I0
sg6
I0
sg7
F0.80000000000000004
sg8
F5.6000000000000005
sg9
F3.2000000000000002
sg10
I0
saa(lp1922
V2015-09-22
p1923
a(dp1924
g5
I0
sg6
I0
sg7
I0
sg8
F0.80000000000000004
sg9
I0
sg10
I0
saa(lp1925
V2015-09-22
p1926
a(dp1927
g5
I0
sg6
I0
sg7
I0
sg8
F0.40000000000000013
sg9
I0
sg10
I0
saa(lp1928
V2015-09-22
p1929
a(dp1930
g5
F1.2000000000000002
sg6
I0
sg7
I0
sg8
F1.2000000000000002
sg9
I0
sg10
I0
saa(lp1931
V2015-09-21
p1932
a(dp1933
g5
I0
sg6
I0
sg7
I0
sg8
F1.2000000000000002
sg9
F1.2000000000000002
sg10
I0
saa(lp1934
V2015-09-21
p1935
a(dp1936
g5
I0
sg6
F1.6000000000000001
sg7
I0
sg8
F1.6000000000000001
sg9
I0
sg10
I0
saa(lp1937
V2015-09-21
p1938
a(dp1939
g5
I0
sg6
I0
sg7
I0
sg8
I0
sg9
I0
sg10
I0
saa(lp1940
V2015-09-21
p1941
a(dp1942
g5
I0
sg6
I0
sg7
I0
sg8
F1.6000000000000001
sg9
F0.80000000000000004
sg10
I0
saa(lp1943
V2015-09-21
p1944
a(dp1945
g5
I0
sg6
I0
sg7
I0
sg8
I0
sg9
I0
sg10
I0
saa(lp1946
V2015-09-20
p1947
a(dp1948
g5
I0
sg6
I0
sg7
I0
sg8
F0.80000000000000004
sg9
I0
sg10
I0
saa(lp1949
V2015-09-20
p1950
a(dp1951
g5
I0
sg6
I0
sg7
I0
sg8
F-2.3999999999999999
sg9
I0
sg10
I0
saa(lp1952
V2015-09-20
p1953
a(dp1954
g5
I0
sg6
F-1.1999999999999995
sg7
I0
sg8
F-1.1999999999999995
sg9
I0
sg10
I0
saa(lp1955
V2015-09-20
p1956
a(dp1957
g5
F3.2000000000000002
sg6
F0.80000000000000004
sg7
I0
sg8
F4
sg9
F4
sg10
I0
saa(lp1958
V2015-09-20
p1959
a(dp1960
g5
I0
sg6
I0
sg7
I0
sg8
F-2.3999999999999999
sg9
I0
sg10
I0
saa(lp1961
V2015-09-20
p1962
a(dp1963
g5
I0
sg6
I0
sg7
I0
sg8
F5.5999999999999996
sg9
F0.80000000000000004
sg10
F0.80000000000000004
saa(lp1964
V2015-09-20
p1965
a(dp1966
g5
I0
sg6
F2.4000000000000004
sg7
I0
sg8
F3.2000000000000002
sg9
I0
sg10
I0
saa(lp1967
V2015-09-19
p1968
a(dp1969
g5
I0
sg6
F5.5999999999999996
sg7
F5.5999999999999996
sg8
F5.5999999999999996
sg9
F5.5999999999999996
sg10
I0
saa(lp1970
V2015-09-19
p1971
a(dp1972
g5
I0
sg6
F0.80000000000000004
sg7
I0
sg8
F1.6000000000000001
sg9
I0
sg10
I0
saa(lp1973
V2015-09-19
p1974
a(dp1975
g5
I0
sg6
I0
sg7
I0
sg8
I0
sg9
I0
sg10
I0
saa(lp1976
V2015-09-19
p1977
a(dp1978
g5
I0
sg6
I0
sg7
I0
sg8
F0.40000000000000013
sg9
F0.80000000000000004
sg10
I0
saa(lp1979
V2015-09-19
p1980
a(dp1981
g5
I0
sg6
F0.80000000000000004
sg7
I0
sg8
F3.6000000000000005
sg9
F0.80000000000000004
sg10
I0
saa(lp1982
V2015-09-19
p1983
a(dp1984
g5
I0
sg6
F1.6000000000000001
sg7
F0.40000000000000013
sg8
F10.800000000000001
sg9
F2
sg10
F1.6000000000000001
saa(lp1985
V2015-09-18
p1986
a(dp1987
g5
I0
sg6
I0
sg7
I0
sg8
F0.80000000000000004
sg9
I0
sg10
I0
saa(lp1988
V2015-09-18
p1989
a(dp1990
g5
I0
sg6
I0
sg7
I0
sg8
F0.80000000000000004
sg9
I0
sg10
I0
saa(lp1991
V2015-09-18
p1992
a(dp1993
g5
I0
sg6
I0
sg7
I0
sg8
F1.6000000000000001
sg9
F0.80000000000000004
sg10
I0
saa(lp1994
V2015-09-18
p1995
a(dp1996
g5
I0
sg6
I0
sg7
I0
sg8
I0
sg9
I0
sg10
I0
saa(lp1997
V2015-09-18
p1998
a(dp1999
g5
I0
sg6
I0
sg7
I0
sg8
F2
sg9
F0.80000000000000004
sg10
I0
saa(lp2000
V2015-09-18
p2001
a(dp2002
g5
I0
sg6
I0
sg7
I0
sg8
F1.6000000000000001
sg9
I0
sg10
I0
saa(lp2003
V2015-09-18
p2004
a(dp2005
g5
I0
sg6
I0
sg7
I0
sg8
F2.0000000000000004
sg9
I0
sg10
I0
saa(lp2006
V2015-09-17
p2007
a(dp2008
g5
I0
sg6
F4.7999999999999998
sg7
I0
sg8
F4.7999999999999998
sg9
F4.7999999999999998
sg10
I0
saa(lp2009
V2015-09-17
p2010
a(dp2011
g5
I0
sg6
I0
sg7
I0
sg8
F1.6000000000000001
sg9
F1.6000000000000001
sg10
I0
saa(lp2012
V2015-09-17
p2013
a(dp2014
g5
I0
sg6
F1.6000000000000001
sg7
I0
sg8
F6.3999999999999995
sg9
F-0.39999999999999991
sg10
I0
saa(lp2015
V2015-09-17
p2016
a(dp2017
g5
I0
sg6
I0
sg7
I0
sg8
F2.4000000000000004
sg9
I0
sg10
I0
saa(lp2018
V2015-09-17
p2019
a(dp2020
g5
I0
sg6
I0
sg7
I0
sg8
F2.4000000000000004
sg9
F2.4000000000000004
sg10
F2.4000000000000004
saa(lp2021
V2015-09-17
p2022
a(dp2023
g5
I0
sg6
F0.80000000000000004
sg7
I0
sg8
F0.80000000000000004
sg9
F0.80000000000000004
sg10
I0
saa(lp2024
V2015-09-16
p2025
a(dp2026
g5
I0
sg6
I0
sg7
I0
sg8
I0
sg9
I0
sg10
I0
saa(lp2027
V2015-09-16
p2028
a(dp2029
g5
I0
sg6
I0
sg7
F0.80000000000000004
sg8
F1.6000000000000001
sg9
F0.80000000000000004
sg10
I0
saa(lp2030
V2015-09-16
p2031
a(dp2032
g5
I0
sg6
I0
sg7
I0
sg8
I0
sg9
I0
sg10
I0
saa(lp2033
V2015-09-16
p2034
a(dp2035
g5
F0.80000000000000004
sg6
F0.80000000000000004
sg7
I0
sg8
F4.4000000000000004
sg9
F2.4000000000000004
sg10
I0
saa(lp2036
V2015-09-16
p2037
a(dp2038
g5
F0.80000000000000004
sg6
I0
sg7
I0
sg8
F0.80000000000000004
sg9
F0.80000000000000004
sg10
I0
saa(lp2039
V2015-09-15
p2040
a(dp2041
g5
I0
sg6
F1.6000000000000001
sg7
F1.6000000000000001
sg8
F3.2000000000000002
sg9
I0
sg10
I0
saa(lp2042
V2015-09-15
p2043
a(dp2044
g5
I0
sg6
I0
sg7
I0
sg8
F0.80000000000000004
sg9
I0
sg10
I0
saa(lp2045
V2015-09-15
p2046
a(dp2047
g5
I0
sg6
I0
sg7
I0
sg8
I0
sg9
I0
sg10
I0
saa(lp2048
V2015-09-15
p2049
a(dp2050
g5
I0
sg6
I0
sg7
F0.80000000000000004
sg8
F1.6000000000000001
sg9
F0.80000000000000004
sg10
I0
saa(lp2051
V2015-09-15
p2052
a(dp2053
g5
I0
sg6
I0
sg7
I0
sg8
I0
sg9
I0
sg10
I0
saa(lp2054
V2015-09-14
p2055
a(dp2056
g5
F-1.1999999999999997
sg6
I0
sg7
I0
sg8
F-1.1999999999999997
sg9
F-1.1999999999999997
sg10
I0
saa(lp2057
V2015-09-14
p2058
a(dp2059
g5
I0
sg6
I0
sg7
I0
sg8
I0
sg9
I0
sg10
I0
saa(lp2060
V2015-09-14
p2061
a(dp2062
g5
I0
sg6
I0
sg7
I0
sg8
F2.4000000000000004
sg9
I0
sg10
I0
saa(lp2063
V2015-09-14
p2064
a(dp2065
g5
I0
sg6
I0
sg7
I0
sg8
F0.80000000000000004
sg9
I0
sg10
I0
saa(lp2066
V2015-09-14
p2067
a(dp2068
g5
I0
sg6
I0
sg7
I0
sg8
F0.80000000000000004
sg9
I0
sg10
I0
saa(lp2069
V2015-09-14
p2070
a(dp2071
g5
I0
sg6
I0
sg7
I0
sg8
F0.80000000000000004
sg9
F0.80000000000000004
sg10
I0
saa(lp2072
V2015-09-14
p2073
a(dp2074
g5
I0
sg6
I0
sg7
I0
sg8
F3.2000000000000002
sg9
I0
sg10
I0
saa(lp2075
V2015-09-13
p2076
a(dp2077
g5
I0
sg6
F0.80000000000000004
sg7
I0
sg8
F6.8000000000000007
sg9
F0.80000000000000004
sg10
I0
saa(lp2078
V2015-09-13
p2079
a(dp2080
g5
I0
sg6
I0
sg7
I0
sg8
F1.6000000000000001
sg9
I0
sg10
I0
saa(lp2081
V2015-09-13
p2082
a(dp2083
g5
I0
sg6
F2.7999999999999998
sg7
I0
sg8
F3.5999999999999996
sg9
F2.7999999999999998
sg10
I0
saa(lp2084
V2015-09-13
p2085
a(dp2086
g5
I0
sg6
I0
sg7
I0
sg8
F3.2000000000000002
sg9
I0
sg10
I0
saa(lp2087
V2015-09-13
p2088
a(dp2089
g5
I0
sg6
I0
sg7
I0
sg8
F-0.39999999999999991
sg9
F-1.2
sg10
I0
saa(lp2090
V2015-09-13
p2091
a(dp2092
g5
I0
sg6
I0
sg7
F4.7999999999999998
sg8
F4.7999999999999998
sg9
F4.7999999999999998
sg10
I0
saa(lp2093
V2015-09-12
p2094
a(dp2095
g5
I0
sg6
I0
sg7
I0
sg8
F0.80000000000000004
sg9
I0
sg10
I0
saa(lp2096
V2015-09-12
p2097
a(dp2098
g5
I0
sg6
F1.2000000000000002
sg7
I0
sg8
F1.6000000000000003
sg9
F1.2000000000000002
sg10
F0.80000000000000027
saa(lp2099
V2015-09-12
p2100
a(dp2101
g5
I0
sg6
I0
sg7
I0
sg8
F1.6000000000000001
sg9
I0
sg10
I0
saa(lp2102
V2015-09-12
p2103
a(dp2104
g5
I0
sg6
I0
sg7
I0
sg8
F0.80000000000000004
sg9
I0
sg10
I0
saa(lp2105
V2015-09-11
p2106
a(dp2107
g5
I0
sg6
F9.5999999999999996
sg7
I0
sg8
F9.5999999999999996
sg9
F9.5999999999999996
sg10
I0
saa(lp2108
V2015-09-11
p2109
a(dp2110
g5
I0
sg6
I0
sg7
I0
sg8
F2.0000000000000004
sg9
F0.80000000000000004
sg10
F0.80000000000000004
saa(lp2111
V2015-09-11
p2112
a(dp2113
g5
I0
sg6
I0
sg7
I0
sg8
F0.80000000000000004
sg9
I0
sg10
F0.80000000000000004
saa(lp2114
V2015-09-11
p2115
a(dp2116
g5
I0
sg6
I0
sg7
I0
sg8
F1.6000000000000001
sg9
I0
sg10
I0
saa(lp2117
V2015-09-11
p2118
a(dp2119
g5
I0
sg6
I0
sg7
I0
sg8
F0.80000000000000004
sg9
I0
sg10
I0
saa(lp2120
V2015-09-11
p2121
a(dp2122
g5
I0
sg6
I0
sg7
I0
sg8
F-0.39999999999999991
sg9
I0
sg10
I0
saa(lp2123
V2015-09-11
p2124
a(dp2125
g5
I0
sg6
I0
sg7
I0
sg8
I0
sg9
I0
sg10
I0
saa(lp2126
V2015-09-10
p2127
a(dp2128
g5
I0
sg6
I0
sg7
I0
sg8
F4.7999999999999998
sg9
I0
sg10
I0
saa(lp2129
V2015-09-10
p2130
a(dp2131
g5
I0
sg6
I0
sg7
I0
sg8
I0
sg9
I0
sg10
I0
saa(lp2132
V2015-09-10
p2133
a(dp2134
g5
I0
sg6
I0
sg7
I0
sg8
F0.80000000000000004
sg9
I0
sg10
I0
saa(lp2135
V2015-09-10
p2136
a(dp2137
g5
I0
sg6
I0
sg7
I0
sg8
I0
sg9
I0
sg10
I0
saa(lp2138
V2015-09-10
p2139
a(dp2140
g5
I0
sg6
I0
sg7
I0
sg8
F0.40000000000000013
sg9
I0
sg10
I0
saa(lp2141
V2015-09-09
p2142
a(dp2143
g5
I0
sg6
I0
sg7
I0
sg8
F2.4000000000000004
sg9
I0
sg10
I0
saa(lp2144
V2015-09-09
p2145
a(dp2146
g5
I0
sg6
I0
sg7
I0
sg8
F-3.1999999999999997
sg9
F-0.79999999999999982
sg10
F-0.79999999999999982
saa(lp2147
V2015-09-09
p2148
a(dp2149
g5
F0.80000000000000004
sg6
I0
sg7
I0
sg8
F2.3999999999999999
sg9
F1.6000000000000001
sg10
I0
saa(lp2150
V2015-09-09
p2151
a(dp2152
g5
I0
sg6
I0
sg7
I0
sg8
F0.40000000000000013
sg9
I0
sg10
I0
saa(lp2153
V2015-09-09
p2154
a(dp2155
g5
I0
sg6
I0
sg7
I0
sg8
F0.80000000000000004
sg9
I0
sg10
I0
saa(lp2156
V2015-09-09
p2157
a(dp2158
g5
I0
sg6
I0
sg7
I0
sg8
F0.80000000000000004
sg9
I0
sg10
I0
saa(lp2159
V2015-09-08
p2160
a(dp2161
g5
I0
sg6
I0
sg7
I0
sg8
F2
sg9
F2
sg10
I0
saa(lp2162
V2015-09-08
p2163
a(dp2164
g5
I0
sg6
I0
sg7
I0
sg8
F2.4000000000000004
sg9
F1.6000000000000001
sg10
I0
saa(lp2165
V2015-09-08
p2166
a(dp2167
g5
F-1.2
sg6
I0
sg7
I0
sg8
F-0.39999999999999991
sg9
I0
sg10
I0
saa(lp2168
V2015-09-08
p2169
a(dp2170
g5
I0
sg6
F0.40000000000000013
sg7
I0
sg8
F0.40000000000000013
sg9
F0.40000000000000013
sg10
I0
saa(lp2171
V2015-09-08
p2172
a(dp2173
g5
I0
sg6
I0
sg7
I0
sg8
I0
sg9
I0
sg10
I0
saa(lp2174
V2015-09-08
p2175
a(dp2176
g5
I0
sg6
I0
sg7
F1.6000000000000001
sg8
F1.6000000000000001
sg9
F1.6000000000000001
sg10
F1.6000000000000001
saa(lp2177
V2015-09-08
p2178
a(dp2179
g5
I0
sg6
I0
sg7
I0
sg8
I0
sg9
I0
sg10
I0
saa(lp2180
V2015-09-08
p2181
a(dp2182
g5
F0.80000000000000004
sg6
I0
sg7
I0
sg8
F2.8000000000000007
sg9
F2.4000000000000004
sg10
I0
saa(lp2183
V2015-09-08
p2184
a(dp2185
g5
I0
sg6
I0
sg7
F0.80000000000000004
sg8
F10.4
sg9
I0
sg10
F0.80000000000000004
saa(lp2186
V2015-09-07
p2187
a(dp2188
g5
I0
sg6
I0
sg7
I0
sg8
I0
sg9
I0
sg10
I0
saa(lp2189
V2015-09-07
p2190
a(dp2191
g5
I0
sg6
I0
sg7
I0
sg8
F2
sg9
F1.6000000000000001
sg10
I0
saa(lp2192
V2015-09-06
p2193
a(dp2194
g5
F-0.39999999999999991
sg6
I0
sg7
I0
sg8
F0.40000000000000013
sg9
I0
sg10
I0
saa(lp2195
V2015-09-06
p2196
a(dp2197
g5
I0
sg6
I0
sg7
F3.2000000000000002
sg8
F1.6000000000000003
sg9
F3.2000000000000002
sg10
F-2.3999999999999999
saa(lp2198
V2015-09-06
p2199
a(dp2200
g5
I0
sg6
I0
sg7
I0
sg8
F-1.2
sg9
I0
sg10
I0
saa(lp2201
V2015-09-06
p2202
a(dp2203
g5
I0
sg6
F4.3999999999999995
sg7
F4.3999999999999995
sg8
F5.9999999999999991
sg9
F4.3999999999999995
sg10
I0
saa(lp2204
V2015-09-06
p2205
a(dp2206
g5
I0
sg6
F0.80000000000000004
sg7
F0.80000000000000004
sg8
F1.6000000000000001
sg9
I0
sg10
I0
saa(lp2207
V2015-09-05
p2208
a(dp2209
g5
I0
sg6
F3.2000000000000002
sg7
F3.2000000000000002
sg8
F3.2000000000000002
sg9
I0
sg10
I0
saa(lp2210
V2015-09-05
p2211
a(dp2212
g5
I0
sg6
I0
sg7
I0
sg8
I0
sg9
I0
sg10
I0
saa(lp2213
V2015-09-05
p2214
a(dp2215
g5
F-1.2
sg6
I0
sg7
I0
sg8
F-0.39999999999999991
sg9
I0
sg10
I0
saa(lp2216
V2015-09-05
p2217
a(dp2218
g5
I0
sg6
F-0.39999999999999991
sg7
I0
sg8
F2.8000000000000007
sg9
F0.80000000000000004
sg10
I0
saa(lp2219
V2015-09-05
p2220
a(dp2221
g5
I0
sg6
I0
sg7
I0
sg8
F-0.79999999999999982
sg9
I0
sg10
I0
saa(lp2222
V2015-09-05
p2223
a(dp2224
g5
I0
sg6
F0.80000000000000004
sg7
I0
sg8
F1.6000000000000001
sg9
I0
sg10
I0
saa(lp2225
V2015-09-05
p2226
a(dp2227
g5
I0
sg6
I0
sg7
I0
sg8
I0
sg9
I0
sg10
I0
saa(lp2228
V2015-09-04
p2229
a(dp2230
g5
I0
sg6
F0.80000000000000004
sg7
I0
sg8
F5.5999999999999996
sg9
I0
sg10
I0
saa(lp2231
V2015-09-04
p2232
a(dp2233
g5
I0
sg6
I0
sg7
I0
sg8
F-0.39999999999999991
sg9
F-0.39999999999999991
sg10
F-0.39999999999999991
saa(lp2234
V2015-09-04
p2235
a(dp2236
g5
I0
sg6
F1.6000000000000001
sg7
I0
sg8
F1.6000000000000001
sg9
I0
sg10
I0
saa(lp2237
V2015-09-04
p2238
a(dp2239
g5
I0
sg6
I0
sg7
I0
sg8
F1.6000000000000001
sg9
I0
sg10
I0
saa(lp2240
V2015-09-04
p2241
a(dp2242
g5
I0
sg6
I0
sg7
I0
sg8
F2.4000000000000004
sg9
I0
sg10
F2.4000000000000004
saa(lp2243
V2015-09-04
p2244
a(dp2245
g5
I0
sg6
I0
sg7
I0
sg8
F1.6000000000000001
sg9
I0
sg10
I0
saa(lp2246
V2015-09-04
p2247
a(dp2248
g5
I0
sg6
I0
sg7
I0
sg8
I0
sg9
I0
sg10
I0
saa(lp2249
V2015-09-04
p2250
a(dp2251
g5
I0
sg6
I0
sg7
F1.6000000000000001
sg8
F1.6000000000000001
sg9
F1.6000000000000001
sg10
F1.6000000000000001
saa(lp2252
V2015-09-04
p2253
a(dp2254
g5
I0
sg6
I0
sg7
I0
sg8
I0
sg9
I0
sg10
I0
saa(lp2255
V2015-09-03
p2256
a(dp2257
g5
I0
sg6
I0
sg7
I0
sg8
F-0.39999999999999991
sg9
I0
sg10
I0
saa(lp2258
V2015-09-03
p2259
a(dp2260
g5
I0
sg6
F0.80000000000000004
sg7
I0
sg8
F0.80000000000000004
sg9
I0
sg10
F0.80000000000000004
saa(lp2261
V2015-09-03
p2262
a(dp2263
g5
I0
sg6
I0
sg7
I0
sg8
I0
sg9
I0
sg10
I0
saa(lp2264
V2015-09-03
p2265
a(dp2266
g5
I0
sg6
F-0.39999999999999991
sg7
I0
sg8
F0.40000000000000013
sg9
F0.80000000000000004
sg10
I0
saa(lp2267
V2015-09-03
p2268
a(dp2269
g5
I0
sg6
I0
sg7
I0
sg8
F-0.39999999999999991
sg9
I0
sg10
I0
saa(lp2270
V2015-09-03
p2271
a(dp2272
g5
I0
sg6
I0
sg7
I0
sg8
F3.2000000000000002
sg9
I0
sg10
I0
saa(lp2273
V2015-09-02
p2274
a(dp2275
g5
I0
sg6
I0
sg7
I0
sg8
F0.80000000000000004
sg9
I0
sg10
I0
saa(lp2276
V2015-09-02
p2277
a(dp2278
g5
F-2.7999999999999998
sg6
F-2.7999999999999998
sg7
I0
sg8
F-2.7999999999999998
sg9
F-2.7999999999999998
sg10
I0
saa(lp2279
V2015-09-02
p2280
a(dp2281
g5
I0
sg6
I0
sg7
I0
sg8
F0.80000000000000004
sg9
I0
sg10
I0
saa(lp2282
V2015-09-02
p2283
a(dp2284
g5
I0
sg6
I0
sg7
I0
sg8
I0
sg9
I0
sg10
I0
saa(lp2285
V2015-09-02
p2286
a(dp2287
g5
I0
sg6
I0
sg7
F0.80000000000000004
sg8
F1.6000000000000001
sg9
F0.80000000000000004
sg10
I0
saa(lp2288
V2015-09-02
p2289
a(dp2290
g5
I0
sg6
I0
sg7
F1.6000000000000001
sg8
F4
sg9
I0
sg10
I0
saa(lp2291
V2015-09-02
p2292
a(dp2293
g5
I0
sg6
I0
sg7
I0
sg8
F0.80000000000000004
sg9
I0
sg10
I0
saa(lp2294
V2015-09-02
p2295
a(dp2296
g5
I0
sg6
I0
sg7
I0
sg8
F-0.39999999999999991
sg9
I0
sg10
I0
saa(lp2297
V2015-09-02
p2298
a(dp2299
g5
I0
sg6
I0
sg7
I0
sg8
F2.4000000000000004
sg9
I0
sg10
I0
saa(lp2300
V2015-09-02
p2301
a(dp2302
g5
F-2.3999999999999999
sg6
F-2.3999999999999999
sg7
I0
sg8
F-2.3999999999999999
sg9
I0
sg10
I0
saa(lp2303
V2015-09-01
p2304
a(dp2305
g5
I0
sg6
F0.80000000000000004
sg7
I0
sg8
F0.80000000000000004
sg9
F0.80000000000000004
sg10
I0
saa(lp2306
V2015-09-01
p2307
a(dp2308
g5
I0
sg6
I0
sg7
I0
sg8
F2.4000000000000004
sg9
I0
sg10
I0
saa(lp2309
V2015-09-01
p2310
a(dp2311
g5
I0
sg6
I0
sg7
I0
sg8
F0.80000000000000004
sg9
F0.80000000000000004
sg10
F0.80000000000000004
saa(lp2312
V2015-09-01
p2313
a(dp2314
g5
I0
sg6
I0
sg7
F1.6000000000000001
sg8
F1.6000000000000001
sg9
I0
sg10
I0
saa(lp2315
V2015-09-01
p2316
a(dp2317
g5
I0
sg6
I0
sg7
I0
sg8
F1.6000000000000001
sg9
F0.80000000000000004
sg10
I0
saa(lp2318
V2015-09-01
p2319
a(dp2320
g5
I0
sg6
I0
sg7
I0
sg8
I0
sg9
I0
sg10
I0
saa(lp2321
V2015-08-31
p2322
a(dp2323
g5
I0
sg6
F2.4000000000000004
sg7
I0
sg8
F2.4000000000000004
sg9
F2.4000000000000004
sg10
F2.4000000000000004
saa(lp2324
V2015-08-31
p2325
a(dp2326
g5
I0
sg6
I0
sg7
I0
sg8
F-0.39999999999999991
sg9
I0
sg10
I0
saa(lp2327
V2015-08-31
p2328
a(dp2329
g5
I0
sg6
I0
sg7
I0
sg8
F0.40000000000000013
sg9
F0.80000000000000004
sg10
I0
saa(lp2330
V2015-08-30
p2331
a(dp2332
g5
I0
sg6
F0.80000000000000004
sg7
I0
sg8
F-0.79999999999999982
sg9
I0
sg10
I0
saa(lp2333
V2015-08-30
p2334
a(dp2335
g5
I0
sg6
I0
sg7
I0
sg8
F2.7999999999999998
sg9
F2.7999999999999998
sg10
I0
saa(lp2336
V2015-08-30
p2337
a(dp2338
g5
F0.80000000000000004
sg6
F0.80000000000000004
sg7
I0
sg8
F2.4000000000000004
sg9
I0
sg10
I0
saa(lp2339
V2015-08-30
p2340
a(dp2341
g5
I0
sg6
I0
sg7
I0
sg8
F1.6000000000000001
sg9
F0.80000000000000004
sg10
I0
saa(lp2342
V2015-08-29
p2343
a(dp2344
g5
I0
sg6
I0
sg7
I0
sg8
I0
sg9
I0
sg10
I0
saa(lp2345
V2015-08-29
p2346
a(dp2347
g5
I0
sg6
I0
sg7
I0
sg8
F-1.5999999999999999
sg9
I0
sg10
I0
saa(lp2348
V2015-08-29
p2349
a(dp2350
g5
I0
sg6
I0
sg7
I0
sg8
F0.80000000000000004
sg9
F0.80000000000000004
sg10
I0
saa(lp2351
V2015-08-28
p2352
a(dp2353
g5
I0
sg6
I0
sg7
I0
sg8
I0
sg9
I0
sg10
I0
saa(lp2354
V2015-08-28
p2355
a(dp2356
g5
I0
sg6
I0
sg7
I0
sg8
I0
sg9
I0
sg10
I0
saa(lp2357
V2015-08-28
p2358
a(dp2359
g5
I0
sg6
I0
sg7
I0
sg8
F0.80000000000000004
sg9
I0
sg10
I0
saa(lp2360
V2015-08-28
p2361
a(dp2362
g5
I0
sg6
I0
sg7
I0
sg8
F0.80000000000000004
sg9
F0.80000000000000004
sg10
I0
saa(lp2363
V2015-08-28
p2364
a(dp2365
g5
I0
sg6
I0
sg7
I0
sg8
I0
sg9
I0
sg10
I0
saa(lp2366
V2015-08-28
p2367
a(dp2368
g5
I0
sg6
I0
sg7
F0.80000000000000004
sg8
F2.4000000000000004
sg9
I0
sg10
I0
saa(lp2369
V2015-08-28
p2370
a(dp2371
g5
I0
sg6
I0
sg7
I0
sg8
F-1.2
sg9
I0
sg10
I0
saa(lp2372
V2015-08-28
p2373
a(dp2374
g5
F1.6000000000000001
sg6
I0
sg7
I0
sg8
F4
sg9
I0
sg10
F2.4000000000000004
saa(lp2375
V2015-08-28
p2376
a(dp2377
g5
I0
sg6
F-1.2
sg7
I0
sg8
F0.40000000000000013
sg9
I0
sg10
I0
saa(lp2378
V2015-08-26
p2379
a(dp2380
g5
F2.4000000000000004
sg6
F2.4000000000000004
sg7
I0
sg8
F3.2000000000000002
sg9
I0
sg10
I0
saa(lp2381
V2015-08-26
p2382
a(dp2383
g5
I0
sg6
I0
sg7
I0
sg8
F0.80000000000000004
sg9
I0
sg10
I0
saa(lp2384
V2015-08-26
p2385
a(dp2386
g5
I0
sg6
I0
sg7
I0
sg8
F1.6000000000000001
sg9
I0
sg10
I0
saa(lp2387
V2015-08-26
p2388
a(dp2389
g5
I0
sg6
I0
sg7
I0
sg8
F0.40000000000000013
sg9
I0
sg10
I0
saa(lp2390
V2015-08-26
p2391
a(dp2392
g5
F0.40000000000000013
sg6
I0
sg7
I0
sg8
F0.40000000000000013
sg9
F0.40000000000000013
sg10
I0
saa(lp2393
V2015-08-26
p2394
a(dp2395
g5
I0
sg6
I0
sg7
F0.80000000000000004
sg8
F0.80000000000000004
sg9
I0
sg10
I0
saa(lp2396
V2015-08-26
p2397
a(dp2398
g5
I0
sg6
F0.80000000000000004
sg7
I0
sg8
F1.6000000000000001
sg9
I0
sg10
I0
saa(lp2399
V2015-08-26
p2400
a(dp2401
g5
I0
sg6
I0
sg7
I0
sg8
F-0.79999999999999982
sg9
I0
sg10
I0
saa(lp2402
V2015-08-26
p2403
a(dp2404
g5
I0
sg6
I0
sg7
F2.4000000000000004
sg8
F2.4000000000000004
sg9
F2.4000000000000004
sg10
I0
saa(lp2405
V2015-08-26
p2406
a(dp2407
g5
I0
sg6
I0
sg7
I0
sg8
I0
sg9
I0
sg10
I0
saa(lp2408
V2015-08-25
p2409
a(dp2410
g5
I0
sg6
I0
sg7
I0
sg8
F2.4000000000000004
sg9
F0.80000000000000004
sg10
I0
saa(lp2411
V2015-08-25
p2412
a(dp2413
g5
I0
sg6
F0.80000000000000004
sg7
I0
sg8
F1.6000000000000001
sg9
I0
sg10
I0
saa(lp2414
V2015-08-25
p2415
a(dp2416
g5
I0
sg6
I0
sg7
I0
sg8
F1.6000000000000001
sg9
I0
sg10
I0
saa(lp2417
V2015-08-25
p2418
a(dp2419
g5
I0
sg6
I0
sg7
I0
sg8
F0.40000000000000013
sg9
I0
sg10
I0
saa(lp2420
V2015-08-25
p2421
a(dp2422
g5
I0
sg6
I0
sg7
I0
sg8
F4.8000000000000007
sg9
F3.2000000000000002
sg10
F4.8000000000000007
saa(lp2423
V2015-08-25
p2424
a(dp2425
g5
I0
sg6
I0
sg7
I0
sg8
F0.80000000000000004
sg9
I0
sg10
F0.80000000000000004
saa(lp2426
V2015-08-25
p2427
a(dp2428
g5
I0
sg6
I0
sg7
I0
sg8
F1.6000000000000001
sg9
I0
sg10
I0
saa(lp2429
V2015-08-25
p2430
a(dp2431
g5
I0
sg6
I0
sg7
I0
sg8
I0
sg9
I0
sg10
I0
saa(lp2432
V2015-08-24
p2433
a(dp2434
g5
I0
sg6
I0
sg7
I0
sg8
F1.6000000000000001
sg9
I0
sg10
I0
saa(lp2435
V2015-08-24
p2436
a(dp2437
g5
I0
sg6
I0
sg7
I0
sg8
F-0.39999999999999991
sg9
I0
sg10
I0
saa(lp2438
V2015-08-24
p2439
a(dp2440
g5
I0
sg6
I0
sg7
I0
sg8
F3.2000000000000002
sg9
I0
sg10
I0
saa(lp2441
V2015-08-24
p2442
a(dp2443
g5
I0
sg6
I0
sg7
I0
sg8
F-1.2
sg9
I0
sg10
I0
saa(lp2444
V2015-08-24
p2445
a(dp2446
g5
F2.4000000000000004
sg6
F2.4000000000000004
sg7
I0
sg8
F2.4000000000000004
sg9
F2.4000000000000004
sg10
I0
saa(lp2447
V2015-08-24
p2448
a(dp2449
g5
I0
sg6
I0
sg7
F0.80000000000000004
sg8
F0.80000000000000004
sg9
I0
sg10
I0
saa(lp2450
V2015-08-24
p2451
a(dp2452
g5
I0
sg6
I0
sg7
F1.6000000000000001
sg8
F1.6000000000000001
sg9
I0
sg10
I0
saa(lp2453
V2015-08-24
p2454
a(dp2455
g5
I0
sg6
F0.80000000000000004
sg7
I0
sg8
F0.80000000000000004
sg9
F0.80000000000000004
sg10
I0
saa(lp2456
V2015-08-24
p2457
a(dp2458
g5
I0
sg6
F4
sg7
F4
sg8
F1.6000000000000001
sg9
F4
sg10
I0
saa(lp2459
V2015-08-24
p2460
a(dp2461
g5
I0
sg6
I0
sg7
I0
sg8
F4
sg9
F0.80000000000000004
sg10
F2.4000000000000004
saa(lp2462
V2015-08-23
p2463
a(dp2464
g5
I0
sg6
I0
sg7
I0
sg8
F2.4000000000000004
sg9
F2.4000000000000004
sg10
I0
saa(lp2465
V2015-08-23
p2466
a(dp2467
g5
I0
sg6
I0
sg7
F1.6000000000000001
sg8
F1.6000000000000001
sg9
F1.6000000000000001
sg10
I0
saa(lp2468
V2015-08-23
p2469
a(dp2470
g5
I0
sg6
F0.80000000000000004
sg7
I0
sg8
F1.2000000000000002
sg9
I0
sg10
I0
saa(lp2471
V2015-08-23
p2472
a(dp2473
g5
I0
sg6
I0
sg7
I0
sg8
F1.6000000000000001
sg9
I0
sg10
I0
saa(lp2474
V2015-08-23
p2475
a(dp2476
g5
I0
sg6
I0
sg7
F4.7999999999999998
sg8
F4.7999999999999998
sg9
I0
sg10
I0
saa(lp2477
V2015-08-23
p2478
a(dp2479
g5
F1.6000000000000001
sg6
F2.4000000000000004
sg7
I0
sg8
F4.8000000000000007
sg9
F2.4000000000000004
sg10
I0
saa(lp2480
V2015-08-23
p2481
a(dp2482
g5
F1.6000000000000001
sg6
F1.6000000000000001
sg7
I0
sg8
F1.6000000000000001
sg9
I0
sg10
I0
saa(lp2483
V2015-08-23
p2484
a(dp2485
g5
I0
sg6
I0
sg7
I0
sg8
F0.80000000000000004
sg9
I0
sg10
I0
saa(lp2486
V2015-08-22
p2487
a(dp2488
g5
I0
sg6
F0.80000000000000004
sg7
I0
sg8
F0.80000000000000004
sg9
I0
sg10
I0
saa(lp2489
V2015-08-22
p2490
a(dp2491
g5
I0
sg6
F1.6000000000000001
sg7
F1.6000000000000001
sg8
F1.6000000000000001
sg9
F1.6000000000000001
sg10
I0
saa(lp2492
V2015-08-22
p2493
a(dp2494
g5
I0
sg6
F0.80000000000000004
sg7
I0
sg8
F2.8000000000000007
sg9
F1.2000000000000004
sg10
F1.2000000000000004
saa(lp2495
V2015-08-22
p2496
a(dp2497
g5
I0
sg6
I0
sg7
I0
sg8
F4
sg9
I0
sg10
I0
saa.