(lp1
(lp2
V2016-01-15
p3
a(dp4
S'Serv'
p5
F1.6000000000000001
sS'OverAll'
p6
F1.6000000000000001
saa(lp7
V2016-01-11
p8
a(dp9
g5
I0
sg6
I0
saa(lp10
V2016-01-01
p11
a(dp12
g5
I0
sg6
I0
saa(lp13
V2015-12-27
p14
a(dp15
g5
I0
sg6
F1.2000000000000002
saa(lp16
V2015-12-21
p17
a(dp18
g5
I0
sg6
F0.40000000000000013
saa(lp19
V2015-12-01
p20
a(dp21
g5
I0
sg6
F1.6000000000000001
saa(lp22
V2015-11-16
p23
a(dp24
g5
I0
sg6
F1.6000000000000001
saa(lp25
V2015-11-08
p26
a(dp27
g5
I0
sg6
F0.80000000000000004
saa(lp28
V2015-11-04
p29
a(dp30
g5
F-0.39999999999999991
sg6
F-0.39999999999999991
saa(lp31
V2015-11-02
p32
a(dp33
g5
I0
sg6
F0.40000000000000013
saa(lp34
V2015-10-27
p35
a(dp36
g5
I0
sg6
F1.6000000000000001
saa(lp37
V2015-10-25
p38
a(dp39
g5
I0
sg6
F0.80000000000000004
saa(lp40
V2015-10-08
p41
a(dp42
g5
I0
sg6
F1.6000000000000001
saa(lp43
V2015-10-07
p44
a(dp45
g5
F0.80000000000000004
sg6
F0.80000000000000004
saa(lp46
V2015-10-03
p47
a(dp48
g5
I0
sg6
F0.80000000000000004
saa(lp49
V2015-09-21
p50
a(dp51
g5
I0
sg6
F5.2000000000000002
saa(lp52
V2015-08-03
p53
a(dp54
g5
I0
sg6
F0.80000000000000004
saa(lp55
V2015-07-25
p56
a(dp57
g5
I0
sg6
F0.40000000000000013
saa(lp58
V2015-07-16
p59
a(dp60
g5
I0
sg6
F0.80000000000000004
saa(lp61
V2015-07-13
p62
a(dp63
g5
I0
sg6
F0.40000000000000013
saa(lp64
V2015-07-13
p65
a(dp66
g5
I0
sg6
F-1.2
saa(lp67
V2015-07-12
p68
a(dp69
g5
F0.80000000000000004
sg6
F0.80000000000000004
saa(lp70
V2015-07-04
p71
a(dp72
g5
I0
sg6
I0
saa(lp73
V2015-06-30
p74
a(dp75
g5
F0.80000000000000004
sg6
F0.80000000000000004
saa(lp76
V2015-06-27
p77
a(dp78
g5
I0
sg6
F1.6000000000000001
saa(lp79
V2015-06-23
p80
a(dp81
g5
F0.80000000000000004
sg6
F2.4000000000000004
saa(lp82
V2015-06-22
p83
a(dp84
g5
I0
sg6
F0.80000000000000004
saa(lp85
V2015-06-19
p86
a(dp87
g5
I0
sg6
F0.80000000000000004
saa(lp88
V2015-06-18
p89
a(dp90
g5
I0
sg6
I0
saa(lp91
V2015-06-16
p92
a(dp93
g5
F0.80000000000000004
sg6
F1.6000000000000001
saa(lp94
V2015-06-11
p95
a(dp96
g5
I0
sg6
F-1.2
saa(lp97
V2015-05-22
p98
a(dp99
g5
I0
sg6
F1.6000000000000001
saa(lp100
V2015-05-04
p101
a(dp102
g5
I0
sg6
F-0.39999999999999991
saa(lp103
V2015-05-03
p104
a(dp105
g5
I0
sg6
F-1.2
saa(lp106
V2015-04-28
p107
a(dp108
g5
F1.6000000000000001
sg6
F1.6000000000000001
saa(lp109
V2015-04-26
p110
a(dp111
g5
F-1.2
sg6
F-1.2
saa(lp112
V2015-04-19
p113
a(dp114
g5
I0
sg6
I0
saa(lp115
V2015-04-12
p116
a(dp117
g5
I0
sg6
F-1.2
saa(lp118
V2015-04-06
p119
a(dp120
g5
F-0.39999999999999991
sg6
F-1.9999999999999998
saa(lp121
V2015-04-03
p122
a(dp123
g5
I0
sg6
F0.40000000000000013
saa(lp124
V2015-03-30
p125
a(dp126
g5
I0
sg6
I0
saa(lp127
V2015-03-23
p128
a(dp129
g5
I0
sg6
F0.80000000000000004
saa(lp130
V2015-03-06
p131
a(dp132
g5
I0
sg6
I0
saa(lp133
V2015-03-05
p134
a(dp135
g5
I0
sg6
F1.6000000000000001
saa(lp136
V2015-02-23
p137
a(dp138
g5
F1.6000000000000001
sg6
F1.6000000000000001
saa(lp139
V2015-02-18
p140
a(dp141
g5
I0
sg6
F0.80000000000000004
saa(lp142
V2015-02-06
p143
a(dp144
g5
I0
sg6
F1.6000000000000001
saa(lp145
V2015-02-05
p146
a(dp147
g5
F2.4000000000000004
sg6
F2.4000000000000004
saa(lp148
V2015-01-30
p149
a(dp150
g5
I0
sg6
F0.80000000000000004
saa(lp151
V2015-01-26
p152
a(dp153
g5
I0
sg6
F0.80000000000000004
saa(lp154
V2015-01-20
p155
a(dp156
g5
I0
sg6
F1.6000000000000001
saa(lp157
V2015-01-11
p158
a(dp159
g5
I0
sg6
F1.6000000000000001
saa(lp160
V2015-01-09
p161
a(dp162
g5
I0
sg6
F0.80000000000000004
saa(lp163
V2015-01-06
p164
a(dp165
g5
I0
sg6
F1.2000000000000002
saa(lp166
V2015-01-06
p167
a(dp168
g5
I0
sg6
F-0.39999999999999991
saa(lp169
V2015-01-06
p170
a(dp171
g5
I0
sg6
F0.80000000000000004
saa(lp172
V2015-01-01
p173
a(dp174
g5
I0
sg6
F-1.2
saa(lp175
V2014-12-29
p176
a(dp177
g5
I0
sg6
F1.6000000000000001
saa(lp178
V2014-12-29
p179
a(dp180
g5
I0
sg6
F3.2000000000000002
saa(lp181
V2014-12-26
p182
a(dp183
g5
I0
sg6
F0.80000000000000004
saa(lp184
V2014-12-21
p185
a(dp186
g5
I0
sg6
F4.7999999999999998
saa(lp187
V2014-12-20
p188
a(dp189
g5
I0
sg6
F0.80000000000000004
saa(lp190
V2014-12-18
p191
a(dp192
g5
I0
sg6
I0
saa(lp193
V2014-12-16
p194
a(dp195
g5
I0
sg6
F2.4000000000000004
saa(lp196
V2014-12-15
p197
a(dp198
g5
I0
sg6
F1.2000000000000002
saa(lp199
V2014-12-08
p200
a(dp201
g5
F0.80000000000000004
sg6
F0.40000000000000013
saa(lp202
V2014-12-08
p203
a(dp204
g5
I0
sg6
F4.8000000000000007
saa(lp205
V2014-12-06
p206
a(dp207
g5
I0
sg6
I0
saa(lp208
V2014-11-26
p209
a(dp210
g5
I0
sg6
F-2.3999999999999999
saa(lp211
V2014-11-24
p212
a(dp213
g5
I0
sg6
F1.6000000000000001
saa(lp214
V2014-11-22
p215
a(dp216
g5
I0
sg6
F2.4000000000000004
saa(lp217
V2014-11-21
p218
a(dp219
g5
F-1.2
sg6
F2.4000000000000004
saa(lp220
V2014-11-19
p221
a(dp222
g5
I0
sg6
F-1.2
saa(lp223
V2014-11-17
p224
a(dp225
g5
F0.80000000000000004
sg6
F1.2000000000000002
saa(lp226
V2014-11-10
p227
a(dp228
g5
F1.6000000000000001
sg6
F2.4000000000000004
saa(lp229
V2014-11-04
p230
a(dp231
g5
F1.6000000000000001
sg6
F1.6000000000000001
saa(lp232
V2014-10-14
p233
a(dp234
g5
I0
sg6
F0.80000000000000004
saa(lp235
V2014-10-13
p236
a(dp237
g5
I0
sg6
F2.4000000000000004
saa(lp238
V2014-10-08
p239
a(dp240
g5
I0
sg6
F-1.5999999999999999
saa(lp241
V2014-10-08
p242
a(dp243
g5
I0
sg6
I0
saa(lp244
V2014-10-05
p245
a(dp246
g5
I0
sg6
F-0.39999999999999991
saa(lp247
V2014-09-30
p248
a(dp249
g5
I0
sg6
I0
saa(lp250
V2014-09-27
p251
a(dp252
g5
I0
sg6
F-1.2
saa(lp253
V2014-09-24
p254
a(dp255
g5
I0
sg6
F-0.39999999999999991
saa(lp256
V2014-09-18
p257
a(dp258
g5
I0
sg6
F0.80000000000000004
saa(lp259
V2014-09-17
p260
a(dp261
g5
I0
sg6
F-0.39999999999999991
saa(lp262
V2014-09-15
p263
a(dp264
g5
F1.6000000000000001
sg6
F2
saa(lp265
V2014-09-12
p266
a(dp267
g5
I0
sg6
F1.6000000000000001
saa(lp268
V2014-09-09
p269
a(dp270
g5
I0
sg6
F1.6000000000000001
saa(lp271
V2014-09-06
p272
a(dp273
g5
I0
sg6
F0.80000000000000004
saa(lp274
V2014-09-06
p275
a(dp276
g5
F-0.39999999999999991
sg6
F-0.39999999999999991
saa(lp277
V2014-09-04
p278
a(dp279
g5
I0
sg6
F0.80000000000000004
saa(lp280
V2014-09-04
p281
a(dp282
g5
I0
sg6
F2.4000000000000004
saa(lp283
V2014-09-03
p284
a(dp285
g5
I0
sg6
F0.80000000000000004
saa(lp286
V2014-09-02
p287
a(dp288
g5
F0.80000000000000004
sg6
F1.2000000000000002
saa(lp289
V2014-08-31
p290
a(dp291
g5
I0
sg6
F2.4000000000000004
saa(lp292
V2014-08-30
p293
a(dp294
g5
I0
sg6
F-0.39999999999999991
saa(lp295
V2014-08-28
p296
a(dp297
g5
I0
sg6
F0.80000000000000004
saa(lp298
V2014-08-26
p299
a(dp300
g5
I0
sg6
F1.6000000000000001
saa(lp301
V2014-08-24
p302
a(dp303
g5
I0
sg6
I0
saa(lp304
V2014-08-21
p305
a(dp306
g5
I0
sg6
F-0.39999999999999991
saa(lp307
V2014-08-20
p308
a(dp309
g5
F0.80000000000000004
sg6
F0.80000000000000004
saa(lp310
V2014-08-19
p311
a(dp312
g5
I0
sg6
F1.2000000000000002
saa(lp313
V2014-08-19
p314
a(dp315
g5
I0
sg6
F0.80000000000000004
saa(lp316
V2014-08-18
p317
a(dp318
g5
I0
sg6
F0.80000000000000004
saa(lp319
V2014-08-18
p320
a(dp321
g5
I0
sg6
F-0.79999999999999982
saa(lp322
V2014-08-18
p323
a(dp324
g5
I0
sg6
F0.80000000000000004
saa(lp325
V2014-08-17
p326
a(dp327
g5
I0
sg6
I0
saa(lp328
V2014-08-17
p329
a(dp330
g5
I0
sg6
I0
saa(lp331
V2014-08-17
p332
a(dp333
g5
I0
sg6
F1.6000000000000001
saa(lp334
V2014-08-16
p335
a(dp336
g5
I0
sg6
I0
saa(lp337
V2014-08-04
p338
a(dp339
g5
F-1.2
sg6
F-1.2
saa(lp340
V2014-08-01
p341
a(dp342
g5
F-1.5999999999999999
sg6
F-1.5999999999999999
saa(lp343
V2014-08-01
p344
a(dp345
g5
I0
sg6
F-1.5999999999999999
saa(lp346
V2014-07-27
p347
a(dp348
g5
I0
sg6
F1.6000000000000001
saa(lp349
V2014-07-26
p350
a(dp351
g5
F-0.39999999999999991
sg6
F-0.79999999999999982
saa(lp352
V2014-07-26
p353
a(dp354
g5
I0
sg6
F0.80000000000000004
saa(lp355
V2014-07-26
p356
a(dp357
g5
I0
sg6
F1.6000000000000001
saa(lp358
V2014-07-23
p359
a(dp360
g5
I0
sg6
F-2.7999999999999998
saa(lp361
V2014-07-20
p362
a(dp363
g5
I0
sg6
F2.4000000000000004
saa(lp364
V2014-07-19
p365
a(dp366
g5
I0
sg6
I0
saa(lp367
V2014-07-17
p368
a(dp369
g5
F0.80000000000000004
sg6
F3.2000000000000002
saa(lp370
V2014-07-11
p371
a(dp372
g5
I0
sg6
F0.40000000000000013
saa(lp373
V2014-07-08
p374
a(dp375
g5
I0
sg6
F0.80000000000000004
saa(lp376
V2014-07-01
p377
a(dp378
g5
I0
sg6
F1.6000000000000001
saa(lp379
V2014-06-27
p380
a(dp381
g5
I0
sg6
F1.6000000000000001
saa(lp382
V2014-06-27
p383
a(dp384
g5
I0
sg6
I0
saa(lp385
V2014-06-26
p386
a(dp387
g5
I0
sg6
F-0.39999999999999991
saa(lp388
V2014-06-25
p389
a(dp390
g5
F2.4000000000000004
sg6
F2.4000000000000004
saa(lp391
V2014-06-24
p392
a(dp393
g5
I0
sg6
F1.6000000000000001
saa(lp394
V2014-06-23
p395
a(dp396
g5
F0.80000000000000004
sg6
F2.4000000000000004
saa(lp397
V2014-06-22
p398
a(dp399
g5
I0
sg6
F0.80000000000000004
saa(lp400
V2014-06-20
p401
a(dp402
g5
I0
sg6
F-1.2
saa(lp403
V2014-06-17
p404
a(dp405
g5
I0
sg6
F4
saa(lp406
V2014-06-14
p407
a(dp408
g5
I0
sg6
F0.80000000000000004
saa(lp409
V2014-06-12
p410
a(dp411
g5
I0
sg6
F2.4000000000000004
saa(lp412
V2014-06-12
p413
a(dp414
g5
I0
sg6
F1.6000000000000001
saa(lp415
V2014-06-11
p416
a(dp417
g5
I0
sg6
F0.40000000000000013
saa(lp418
V2014-06-11
p419
a(dp420
g5
I0
sg6
F3.2000000000000002
saa(lp421
V2014-06-10
p422
a(dp423
g5
I0
sg6
F0.80000000000000004
saa(lp424
V2014-06-04
p425
a(dp426
g5
I0
sg6
F1.6000000000000001
saa(lp427
V2014-06-04
p428
a(dp429
g5
I0
sg6
F-0.39999999999999991
saa(lp430
V2014-05-30
p431
a(dp432
g5
I0
sg6
F-1.2
saa(lp433
V2014-05-30
p434
a(dp435
g5
I0
sg6
I0
saa(lp436
V2014-05-30
p437
a(dp438
g5
F1.6000000000000001
sg6
F4.4408920985006262e-16
saa(lp439
V2014-05-28
p440
a(dp441
g5
I0
sg6
I0
saa(lp442
V2014-05-25
p443
a(dp444
g5
F0.40000000000000013
sg6
F0.40000000000000013
saa(lp445
V2014-05-23
p446
a(dp447
g5
I0
sg6
F-1.2
saa(lp448
V2014-05-21
p449
a(dp450
g5
I0
sg6
F0.40000000000000013
saa(lp451
V2014-05-13
p452
a(dp453
g5
I0
sg6
F1.6000000000000001
saa(lp454
V2014-05-11
p455
a(dp456
g5
F-1.2
sg6
F-1.2
saa(lp457
V2014-05-11
p458
a(dp459
g5
F1.6000000000000001
sg6
F1.6000000000000001
saa(lp460
V2014-05-10
p461
a(dp462
g5
F0.80000000000000004
sg6
F0.80000000000000004
saa(lp463
V2014-05-07
p464
a(dp465
g5
I0
sg6
F0.80000000000000004
saa(lp466
V2014-05-05
p467
a(dp468
g5
F0.80000000000000004
sg6
F0.80000000000000004
saa(lp469
V2014-05-03
p470
a(dp471
g5
I0
sg6
F0.80000000000000004
saa(lp472
V2014-05-01
p473
a(dp474
g5
I0
sg6
F2.4000000000000004
saa(lp475
V2014-04-28
p476
a(dp477
g5
I0
sg6
F2.4000000000000004
saa(lp478
V2014-04-25
p479
a(dp480
g5
F-1.2
sg6
F-1.5999999999999999
saa(lp481
V2014-04-23
p482
a(dp483
g5
I0
sg6
F0.80000000000000004
saa(lp484
V2014-04-23
p485
a(dp486
g5
I0
sg6
F0.40000000000000013
saa(lp487
V2014-04-22
p488
a(dp489
g5
I0
sg6
F0.80000000000000004
saa(lp490
V2014-04-20
p491
a(dp492
g5
I0
sg6
F-0.39999999999999991
saa(lp493
V2014-04-20
p494
a(dp495
g5
I0
sg6
F0.40000000000000013
saa(lp496
V2014-04-19
p497
a(dp498
g5
F0.80000000000000004
sg6
F0.80000000000000004
saa(lp499
V2014-04-18
p500
a(dp501
g5
I0
sg6
F0.80000000000000004
saa(lp502
V2014-04-17
p503
a(dp504
g5
I0
sg6
I0
saa(lp505
V2014-04-16
p506
a(dp507
g5
I0
sg6
I0
saa(lp508
V2014-04-14
p509
a(dp510
g5
I0
sg6
F-1.2
saa(lp511
V2014-04-12
p512
a(dp513
g5
I0
sg6
F-0.79999999999999982
saa(lp514
V2014-04-11
p515
a(dp516
g5
I0
sg6
F-0.39999999999999991
saa(lp517
V2014-04-11
p518
a(dp519
g5
I0
sg6
F1.6000000000000001
saa(lp520
V2014-04-10
p521
a(dp522
g5
I0
sg6
F-1.2
saa(lp523
V2014-04-10
p524
a(dp525
g5
F-0.39999999999999991
sg6
F-0.39999999999999991
saa(lp526
V2014-04-08
p527
a(dp528
g5
I0
sg6
I0
saa(lp529
V2014-04-07
p530
a(dp531
g5
I0
sg6
I0
saa(lp532
V2014-04-07
p533
a(dp534
g5
I0
sg6
F-0.39999999999999991
saa(lp535
V2014-04-05
p536
a(dp537
g5
F2.4000000000000004
sg6
F2.4000000000000004
saa(lp538
V2014-04-05
p539
a(dp540
g5
I0
sg6
F2.7999999999999998
saa(lp541
V2014-04-03
p542
a(dp543
g5
F0.80000000000000004
sg6
F2.4000000000000004
saa(lp544
V2014-03-29
p545
a(dp546
g5
I0
sg6
F1.6000000000000001
saa(lp547
V2014-03-26
p548
a(dp549
g5
F1.6000000000000001
sg6
F1.6000000000000001
saa(lp550
V2014-03-24
p551
a(dp552
g5
F0.40000000000000013
sg6
F0.40000000000000013
saa(lp553
V2014-03-17
p554
a(dp555
g5
I0
sg6
F-1.2
saa(lp556
V2014-03-16
p557
a(dp558
g5
I0
sg6
F2.2204460492503131e-16
saa(lp559
V2014-03-15
p560
a(dp561
g5
F0.80000000000000004
sg6
F2.4000000000000004
saa(lp562
V2014-03-15
p563
a(dp564
g5
I0
sg6
F-1.5999999999999999
saa(lp565
V2014-03-14
p566
a(dp567
g5
I0
sg6
I0
saa(lp568
V2014-03-13
p569
a(dp570
g5
I0
sg6
I0
saa(lp571
V2014-03-13
p572
a(dp573
g5
I0
sg6
F-0.39999999999999991
saa(lp574
V2014-03-12
p575
a(dp576
g5
I0
sg6
F-0.39999999999999991
saa(lp577
V2014-03-07
p578
a(dp579
g5
I0
sg6
F2.4000000000000004
saa(lp580
V2014-03-02
p581
a(dp582
g5
I0
sg6
F-2.3999999999999999
saa(lp583
V2014-03-02
p584
a(dp585
g5
I0
sg6
F0.40000000000000013
saa(lp586
V2014-02-28
p587
a(dp588
g5
I0
sg6
F1.6000000000000001
saa(lp589
V2014-02-27
p590
a(dp591
g5
F-0.39999999999999991
sg6
F-0.39999999999999991
saa(lp592
V2014-02-26
p593
a(dp594
g5
I0
sg6
F1.6000000000000001
saa(lp595
V2014-02-26
p596
a(dp597
g5
I0
sg6
I0
saa(lp598
V2014-02-25
p599
a(dp600
g5
I0
sg6
I0
saa(lp601
V2014-02-24
p602
a(dp603
g5
I0
sg6
F0.80000000000000004
saa(lp604
V2014-02-24
p605
a(dp606
g5
I0
sg6
F-1.5999999999999999
saa(lp607
V2014-02-24
p608
a(dp609
g5
I0
sg6
F-0.39999999999999991
saa(lp610
V2014-02-21
p611
a(dp612
g5
I0
sg6
F0.80000000000000027
saa(lp613
V2014-02-17
p614
a(dp615
g5
I0
sg6
F1.6000000000000001
saa(lp616
V2014-02-15
p617
a(dp618
g5
F0.80000000000000004
sg6
F5.6000000000000005
saa(lp619
V2014-02-13
p620
a(dp621
g5
I0
sg6
F1.2000000000000002
saa(lp622
V2014-02-11
p623
a(dp624
g5
I0
sg6
F1.6000000000000001
saa(lp625
V2014-02-10
p626
a(dp627
g5
I0
sg6
I0
saa(lp628
V2014-02-07
p629
a(dp630
g5
F1.6000000000000001
sg6
F2.4000000000000004
saa(lp631
V2014-02-05
p632
a(dp633
g5
I0
sg6
F-0.39999999999999991
saa(lp634
V2014-02-05
p635
a(dp636
g5
I0
sg6
F-1.2
saa(lp637
V2014-01-31
p638
a(dp639
g5
F1.6000000000000001
sg6
F1.6000000000000001
saa(lp640
V2014-01-30
p641
a(dp642
g5
I0
sg6
I0
saa(lp643
V2014-01-29
p644
a(dp645
g5
I0
sg6
F0.80000000000000004
saa(lp646
V2014-01-26
p647
a(dp648
g5
F-1.5999999999999999
sg6
F-1.5999999999999999
saa(lp649
V2014-01-25
p650
a(dp651
g5
I0
sg6
I0
saa(lp652
V2014-01-18
p653
a(dp654
g5
F-1.9999999999999998
sg6
F-1.1999999999999997
saa(lp655
V2014-01-17
p656
a(dp657
g5
I0
sg6
F4
saa(lp658
V2014-01-16
p659
a(dp660
g5
F3.2000000000000002
sg6
F3.2000000000000002
saa(lp661
V2014-01-15
p662
a(dp663
g5
I0
sg6
F1.6000000000000001
saa(lp664
V2014-01-14
p665
a(dp666
g5
I0
sg6
F0.80000000000000004
saa(lp667
V2014-01-12
p668
a(dp669
g5
I0
sg6
F1.6000000000000001
saa(lp670
V2014-01-07
p671
a(dp672
g5
I0
sg6
F1.6000000000000001
saa(lp673
V2014-01-06
p674
a(dp675
g5
I0
sg6
I0
saa(lp676
V2014-01-05
p677
a(dp678
g5
I0
sg6
I0
saa(lp679
V2013-12-31
p680
a(dp681
g5
I0
sg6
F1.6000000000000001
saa(lp682
V2013-12-30
p683
a(dp684
g5
I0
sg6
F0.80000000000000004
saa(lp685
V2013-12-26
p686
a(dp687
g5
I0
sg6
F1.6000000000000001
saa(lp688
V2013-12-24
p689
a(dp690
g5
I0
sg6
I0
saa(lp691
V2013-12-23
p692
a(dp693
g5
F0.80000000000000004
sg6
F0.80000000000000004
saa(lp694
V2013-12-22
p695
a(dp696
g5
I0
sg6
F0.80000000000000004
saa(lp697
V2013-12-20
p698
a(dp699
g5
I0
sg6
F0.80000000000000004
saa(lp700
V2013-12-14
p701
a(dp702
g5
I0
sg6
F1.2000000000000002
saa(lp703
V2013-11-21
p704
a(dp705
g5
I0
sg6
F1.6000000000000001
saa(lp706
V2013-11-21
p707
a(dp708
g5
F1.6000000000000001
sg6
F1.6000000000000001
saa(lp709
V2013-11-18
p710
a(dp711
g5
I0
sg6
F0.80000000000000004
saa(lp712
V2013-11-17
p713
a(dp714
g5
I0
sg6
F2.2204460492503131e-16
saa(lp715
V2013-11-17
p716
a(dp717
g5
I0
sg6
F1.6000000000000001
saa(lp718
V2013-11-07
p719
a(dp720
g5
I0
sg6
F0.80000000000000004
saa(lp721
V2013-11-07
p722
a(dp723
g5
I0
sg6
F1.6000000000000001
saa(lp724
V2013-11-03
p725
a(dp726
g5
I0
sg6
F1.6000000000000001
saa(lp727
V2013-10-28
p728
a(dp729
g5
I0
sg6
F-1.5999999999999999
saa(lp730
V2013-10-23
p731
a(dp732
g5
I0
sg6
I0
saa(lp733
V2013-10-22
p734
a(dp735
g5
I0
sg6
F2.4000000000000004
saa(lp736
V2013-10-20
p737
a(dp738
g5
I0
sg6
F0.80000000000000004
saa(lp739
V2013-10-19
p740
a(dp741
g5
I0
sg6
F0.80000000000000004
saa(lp742
V2013-10-18
p743
a(dp744
g5
I0
sg6
F0.40000000000000013
saa(lp745
V2013-10-17
p746
a(dp747
g5
F0.80000000000000004
sg6
F0.80000000000000004
saa(lp748
V2013-10-17
p749
a(dp750
g5
I0
sg6
F0.80000000000000004
saa(lp751
V2013-10-16
p752
a(dp753
g5
I0
sg6
F0.80000000000000004
saa(lp754
V2013-10-16
p755
a(dp756
g5
I0
sg6
F1.6000000000000001
saa(lp757
V2013-10-16
p758
a(dp759
g5
F1.6000000000000001
sg6
F3.2000000000000002
saa(lp760
V2013-10-13
p761
a(dp762
g5
I0
sg6
F1.6000000000000001
saa(lp763
V2013-10-12
p764
a(dp765
g5
I0
sg6
F0.40000000000000013
saa(lp766
V2013-10-10
p767
a(dp768
g5
I0
sg6
F-1.2
saa(lp769
V2013-10-09
p770
a(dp771
g5
I0
sg6
F0.40000000000000013
saa(lp772
V2013-10-08
p773
a(dp774
g5
I0
sg6
F1.6000000000000001
saa(lp775
V2013-10-07
p776
a(dp777
g5
F-0.79999999999999982
sg6
F-0.79999999999999982
saa(lp778
V2013-10-06
p779
a(dp780
g5
I0
sg6
I0
saa(lp781
V2013-10-04
p782
a(dp783
g5
I0
sg6
I0
saa(lp784
V2013-10-03
p785
a(dp786
g5
I0
sg6
F1.2000000000000002
saa(lp787
V2013-10-03
p788
a(dp789
g5
I0
sg6
F-0.79999999999999982
saa(lp790
V2013-10-03
p791
a(dp792
g5
I0
sg6
F0.80000000000000004
saa(lp793
V2013-09-26
p794
a(dp795
g5
I0
sg6
F0.40000000000000013
saa(lp796
V2013-09-21
p797
a(dp798
g5
I0
sg6
F1.6000000000000001
saa(lp799
V2013-09-10
p800
a(dp801
g5
I0
sg6
F1.2000000000000002
saa(lp802
V2013-09-03
p803
a(dp804
g5
F0.80000000000000004
sg6
F1.6000000000000001
saa(lp805
V2013-08-30
p806
a(dp807
g5
I0
sg6
F2
saa(lp808
V2013-08-27
p809
a(dp810
g5
F0.80000000000000004
sg6
F0.40000000000000013
saa(lp811
V2013-08-27
p812
a(dp813
g5
I0
sg6
I0
saa(lp814
V2013-08-26
p815
a(dp816
g5
F0.80000000000000004
sg6
F1.2000000000000002
saa(lp817
V2013-08-22
p818
a(dp819
g5
F1.2000000000000004
sg6
F1.2000000000000004
saa(lp820
V2013-08-22
p821
a(dp822
g5
I0
sg6
F0.80000000000000004
saa(lp823
V2013-08-21
p824
a(dp825
g5
F0.80000000000000004
sg6
F2.4000000000000004
saa(lp826
V2013-08-13
p827
a(dp828
g5
I0
sg6
F0.40000000000000013
saa(lp829
V2013-08-12
p830
a(dp831
g5
I0
sg6
F0.80000000000000004
saa(lp832
V2013-08-10
p833
a(dp834
g5
I0
sg6
F0.80000000000000004
saa(lp835
V2013-08-03
p836
a(dp837
g5
I0
sg6
F-0.39999999999999991
saa(lp838
V2013-08-03
p839
a(dp840
g5
I0
sg6
F-1.5999999999999999
saa(lp841
V2013-07-30
p842
a(dp843
g5
I0
sg6
F2.4000000000000004
saa(lp844
V2013-07-23
p845
a(dp846
g5
I0
sg6
I0
saa(lp847
V2013-07-22
p848
a(dp849
g5
F-0.79999999999999982
sg6
F-0.79999999999999982
saa(lp850
V2013-07-18
p851
a(dp852
g5
I0
sg6
F1.2000000000000002
saa(lp853
V2013-07-01
p854
a(dp855
g5
I0
sg6
F2.4000000000000004
saa(lp856
V2013-06-24
p857
a(dp858
g5
I0
sg6
F-1.5999999999999999
saa(lp859
V2013-06-15
p860
a(dp861
g5
I0
sg6
F-0.79999999999999982
saa(lp862
V2013-05-29
p863
a(dp864
g5
F0.80000000000000004
sg6
F2.4000000000000004
saa(lp865
V2013-05-19
p866
a(dp867
g5
I0
sg6
F0.80000000000000004
saa(lp868
V2013-05-12
p869
a(dp870
g5
I0
sg6
F-0.79999999999999982
saa(lp871
V2013-05-10
p872
a(dp873
g5
F0.40000000000000013
sg6
F0.40000000000000013
saa(lp874
V2013-04-22
p875
a(dp876
g5
I0
sg6
F2.4000000000000004
saa(lp877
V2013-04-17
p878
a(dp879
g5
I0
sg6
F-1.5999999999999999
saa(lp880
V2013-04-16
p881
a(dp882
g5
F-1.2
sg6
F-0.39999999999999991
saa(lp883
V2013-04-10
p884
a(dp885
g5
I0
sg6
F-1.5999999999999999
saa(lp886
V2013-04-02
p887
a(dp888
g5
I0
sg6
F0.80000000000000004
saa(lp889
V2013-03-25
p890
a(dp891
g5
I0
sg6
F1.6000000000000001
saa(lp892
V2013-03-24
p893
a(dp894
g5
I0
sg6
F-1.2
saa(lp895
V2013-03-16
p896
a(dp897
g5
I0
sg6
F1.2000000000000002
saa(lp898
V2013-03-13
p899
a(dp900
g5
F-0.39999999999999991
sg6
F3.6000000000000001
saa(lp901
V2013-03-11
p902
a(dp903
g5
I0
sg6
F0.80000000000000004
saa(lp904
V2013-03-06
p905
a(dp906
g5
I0
sg6
F-0.79999999999999982
saa(lp907
V2013-03-02
p908
a(dp909
g5
I0
sg6
I0
saa(lp910
V2013-02-21
p911
a(dp912
g5
I0
sg6
F-0.39999999999999991
saa(lp913
V2013-02-14
p914
a(dp915
g5
F1.6000000000000001
sg6
F1.6000000000000001
saa(lp916
V2013-02-11
p917
a(dp918
g5
I0
sg6
F-0.39999999999999991
saa(lp919
V2013-02-06
p920
a(dp921
g5
I0
sg6
F-0.39999999999999991
saa(lp922
V2013-02-05
p923
a(dp924
g5
I0
sg6
F0.40000000000000013
saa(lp925
V2013-02-03
p926
a(dp927
g5
F0.80000000000000004
sg6
F0.80000000000000004
saa(lp928
V2013-02-02
p929
a(dp930
g5
I0
sg6
I0
saa(lp931
V2013-01-12
p932
a(dp933
g5
F4
sg6
F4
saa(lp934
V2013-01-03
p935
a(dp936
g5
I0
sg6
F4.3999999999999995
saa(lp937
V2013-01-02
p938
a(dp939
g5
F0.80000000000000004
sg6
F0.80000000000000004
saa(lp940
V2012-12-21
p941
a(dp942
g5
I0
sg6
F1.6000000000000001
saa(lp943
V2012-12-21
p944
a(dp945
g5
I0
sg6
F-0.79999999999999982
saa(lp946
V2012-12-17
p947
a(dp948
g5
I0
sg6
I0
saa(lp949
V2012-12-12
p950
a(dp951
g5
I0
sg6
F-0.39999999999999991
saa(lp952
V2012-12-11
p953
a(dp954
g5
I0
sg6
F1.2000000000000002
saa(lp955
V2012-11-29
p956
a(dp957
g5
F1.2000000000000004
sg6
F1.2000000000000004
saa(lp958
V2012-11-28
p959
a(dp960
g5
I0
sg6
F0.80000000000000004
saa(lp961
V2012-11-22
p962
a(dp963
g5
I0
sg6
F-0.39999999999999991
saa(lp964
V2012-11-15
p965
a(dp966
g5
I0
sg6
F-0.39999999999999991
saa(lp967
V2012-11-15
p968
a(dp969
g5
I0
sg6
F-1.2
saa(lp970
V2012-11-05
p971
a(dp972
g5
I0
sg6
F1.6000000000000001
saa(lp973
V2012-11-02
p974
a(dp975
g5
I0
sg6
F0.80000000000000004
saa(lp976
V2012-10-28
p977
a(dp978
g5
I0
sg6
F-0.39999999999999991
saa(lp979
V2012-10-05
p980
a(dp981
g5
I0
sg6
F-3.1999999999999993
saa(lp982
V2012-09-19
p983
a(dp984
g5
F0.80000000000000004
sg6
F1.6000000000000001
saa(lp985
V2012-09-18
p986
a(dp987
g5
F0.80000000000000004
sg6
F2.4000000000000004
saa(lp988
V2012-09-17
p989
a(dp990
g5
I0
sg6
F3.2000000000000002
saa(lp991
V2012-09-17
p992
a(dp993
g5
I0
sg6
F-0.79999999999999982
saa(lp994
V2012-09-12
p995
a(dp996
g5
I0
sg6
F3.2000000000000002
saa(lp997
V2012-09-12
p998
a(dp999
g5
I0
sg6
F0.80000000000000004
saa(lp1000
V2012-09-10
p1001
a(dp1002
g5
F1.2000000000000002
sg6
F1.2000000000000002
saa(lp1003
V2012-09-05
p1004
a(dp1005
g5
I0
sg6
F1.6000000000000001
saa(lp1006
V2012-09-04
p1007
a(dp1008
g5
I0
sg6
F1.2000000000000002
saa(lp1009
V2012-09-02
p1010
a(dp1011
g5
I0
sg6
I0
saa(lp1012
V2012-09-01
p1013
a(dp1014
g5
I0
sg6
F0.80000000000000004
saa(lp1015
V2012-08-28
p1016
a(dp1017
g5
I0
sg6
F0.40000000000000013
saa(lp1018
V2012-08-26
p1019
a(dp1020
g5
I0
sg6
F4
saa(lp1021
V2012-08-21
p1022
a(dp1023
g5
I0
sg6
F0.40000000000000013
saa(lp1024
V2012-08-16
p1025
a(dp1026
g5
I0
sg6
I0
saa(lp1027
V2012-08-15
p1028
a(dp1029
g5
I0
sg6
F2.4000000000000004
saa(lp1030
V2012-08-13
p1031
a(dp1032
g5
F0.80000000000000004
sg6
F1.6000000000000001
saa(lp1033
V2012-08-11
p1034
a(dp1035
g5
I0
sg6
F-1.1999999999999997
saa(lp1036
V2012-08-08
p1037
a(dp1038
g5
F2.4000000000000004
sg6
F2.4000000000000004
saa(lp1039
V2012-08-08
p1040
a(dp1041
g5
F2.4000000000000004
sg6
F5.5999999999999996
saa(lp1042
V2012-08-08
p1043
a(dp1044
g5
F4
sg6
F4
saa(lp1045
V2012-08-06
p1046
a(dp1047
g5
I0
sg6
I0
saa(lp1048
V2012-08-06
p1049
a(dp1050
g5
F0.80000000000000004
sg6
F2
saa(lp1051
V2012-08-04
p1052
a(dp1053
g5
I0
sg6
F0.40000000000000013
saa(lp1054
V2012-08-02
p1055
a(dp1056
g5
I0
sg6
F2.4000000000000004
saa(lp1057
V2012-07-29
p1058
a(dp1059
g5
I0
sg6
F0.80000000000000004
saa(lp1060
V2012-07-21
p1061
a(dp1062
g5
I0
sg6
F4.4408920985006262e-16
saa(lp1063
V2012-07-17
p1064
a(dp1065
g5
I0
sg6
F1.6000000000000001
saa(lp1066
V2012-07-13
p1067
a(dp1068
g5
I0
sg6
F0.40000000000000013
saa(lp1069
V2012-07-12
p1070
a(dp1071
g5
I0
sg6
F-0.39999999999999991
saa(lp1072
V2012-07-06
p1073
a(dp1074
g5
I0
sg6
F-0.79999999999999982
saa(lp1075
V2012-07-05
p1076
a(dp1077
g5
I0
sg6
F1.6000000000000001
saa(lp1078
V2012-07-03
p1079
a(dp1080
g5
F1.6000000000000001
sg6
F2.4000000000000004
saa(lp1081
V2012-06-26
p1082
a(dp1083
g5
I0
sg6
F2.4000000000000004
saa(lp1084
V2012-06-24
p1085
a(dp1086
g5
I0
sg6
I0
saa(lp1087
V2012-06-19
p1088
a(dp1089
g5
I0
sg6
F0.40000000000000013
saa(lp1090
V2012-06-18
p1091
a(dp1092
g5
I0
sg6
F0.80000000000000004
saa(lp1093
V2012-06-18
p1094
a(dp1095
g5
F0.80000000000000004
sg6
F0.80000000000000004
saa(lp1096
V2012-06-17
p1097
a(dp1098
g5
I0
sg6
F1.6000000000000001
saa(lp1099
V2012-06-16
p1100
a(dp1101
g5
I0
sg6
F1.6000000000000001
saa(lp1102
V2012-06-15
p1103
a(dp1104
g5
F-0.79999999999999982
sg6
F-0.79999999999999982
saa(lp1105
V2012-06-13
p1106
a(dp1107
g5
F0.80000000000000004
sg6
F2.4000000000000004
saa(lp1108
V2012-06-09
p1109
a(dp1110
g5
I0
sg6
F0.80000000000000004
saa(lp1111
V2012-06-05
p1112
a(dp1113
g5
F0.40000000000000013
sg6
F0.40000000000000013
saa(lp1114
V2012-05-31
p1115
a(dp1116
g5
F1.6000000000000001
sg6
F2.4000000000000004
saa(lp1117
V2012-05-29
p1118
a(dp1119
g5
F0.80000000000000004
sg6
F2.4000000000000004
saa(lp1120
V2012-05-19
p1121
a(dp1122
g5
I0
sg6
F1.6000000000000001
saa(lp1123
V2012-04-25
p1124
a(dp1125
g5
F2.7999999999999998
sg6
F2.7999999999999998
saa(lp1126
V2012-04-14
p1127
a(dp1128
g5
I0
sg6
F0.40000000000000013
saa(lp1129
V2012-04-01
p1130
a(dp1131
g5
I0
sg6
F-2.3999999999999999
saa(lp1132
V2012-03-28
p1133
a(dp1134
g5
F0.80000000000000004
sg6
F0.40000000000000013
saa(lp1135
V2012-03-26
p1136
a(dp1137
g5
I0
sg6
F3.2000000000000002
saa(lp1138
V2012-03-15
p1139
a(dp1140
g5
I0
sg6
I0
saa(lp1141
V2012-03-13
p1142
a(dp1143
g5
I0
sg6
F-2.3999999999999999
saa(lp1144
V2012-03-12
p1145
a(dp1146
g5
I0
sg6
F2.2204460492503131e-16
saa(lp1147
V2012-03-01
p1148
a(dp1149
g5
F1.6000000000000001
sg6
F2.8000000000000003
saa(lp1150
V2012-02-19
p1151
a(dp1152
g5
I0
sg6
F1.2000000000000002
saa(lp1153
V2012-02-17
p1154
a(dp1155
g5
I0
sg6
F4.3999999999999995
saa(lp1156
V2012-02-16
p1157
a(dp1158
g5
I0
sg6
F-1.2
saa(lp1159
V2012-02-05
p1160
a(dp1161
g5
I0
sg6
F0.80000000000000004
saa(lp1162
V2012-02-04
p1163
a(dp1164
g5
I0
sg6
F1.2000000000000002
saa(lp1165
V2012-02-03
p1166
a(dp1167
g5
I0
sg6
F-0.39999999999999991
saa(lp1168
V2012-02-01
p1169
a(dp1170
g5
I0
sg6
F1.6000000000000001
saa(lp1171
V2011-12-22
p1172
a(dp1173
g5
I0
sg6
F3.2000000000000002
saa(lp1174
V2011-11-18
p1175
a(dp1176
g5
I0
sg6
F1.6000000000000001
saa(lp1177
V2011-10-27
p1178
a(dp1179
g5
I0
sg6
F1.6000000000000001
saa(lp1180
V2011-10-25
p1181
a(dp1182
g5
F1.6000000000000001
sg6
F1.2000000000000002
saa(lp1183
V2011-10-14
p1184
a(dp1185
g5
I0
sg6
F1.6000000000000001
saa(lp1186
V2011-10-13
p1187
a(dp1188
g5
I0
sg6
I0
saa(lp1189
V2011-10-13
p1190
a(dp1191
g5
I0
sg6
F2.7999999999999998
saa(lp1192
V2011-10-12
p1193
a(dp1194
g5
F4.7999999999999998
sg6
F4.7999999999999998
saa(lp1195
V2011-10-03
p1196
a(dp1197
g5
I0
sg6
F0.80000000000000004
saa(lp1198
V2011-09-30
p1199
a(dp1200
g5
I0
sg6
F0.80000000000000004
saa(lp1201
V2011-09-27
p1202
a(dp1203
g5
I0
sg6
F-0.39999999999999991
saa(lp1204
V2011-09-18
p1205
a(dp1206
g5
I0
sg6
F0.80000000000000004
saa(lp1207
V2011-09-16
p1208
a(dp1209
g5
I0
sg6
F0.80000000000000004
saa(lp1210
V2011-09-10
p1211
a(dp1212
g5
I0
sg6
F0.80000000000000004
saa(lp1213
V2011-08-26
p1214
a(dp1215
g5
I0
sg6
F1.6000000000000001
saa(lp1216
V2011-08-25
p1217
a(dp1218
g5
I0
sg6
F1.6000000000000001
saa.